(dp0
S'http://www.notfall-plan.com/notfallplan-pages/stick-bestellen.php'
p1
F0.00031733202230275223
sS'http://www.etracker.com/layoutAPI?id=MainPageI3000&_lng=2'
p2
F0.00016126306308844872
sS'http://www.etracker.com/fr/etracker-echtzeit-web-controlling-und-online-marktforschung.html'
p3
F0.00010719369337619354
sS'http://www.fastpencil.com/company/for-authors'
p4
F0.00010351777914477935
sS'https://medium.com/unlocking-the-safe/c5240bf2a920'
p5
F0.00010212614619749009
sS'http://en.support.wordpress.com/posts/post-formats/'
p6
F0.00011218715393213123
sS'http://translate.os.cs.teiath.gr/el/wordpress/'
p7
F0.0001006537880291072
sS'http://gravatar.com/terry1954'
p8
F0.0001028127651399244
sS'http://framework.latimes.com/'
p9
F0.0001045642040200864
sS'http://en.support.wordpress.com/splitting-content/nextpage/'
p10
F0.00010322527313796452
sS'https://application.etracker.com/registration.php?formData[packageIds][]=50'
p11
F0.00010053629586366203
sS'http://howdiyblog.com/'
p12
F0.00010098010424129149
sS'http://www.blurb.com/bookstore/category/c-children'
p13
F0.00011716482218100732
sS'http://www.google.com/transliterate/'
p14
F0.00010113013167462669
sS'https://dev.twitter.com/discussions/10803'
p15
F0.00010519250701670358
sS'http://twitter.com/WordPressVIP/statuses/288546300209790976'
p16
F0.00012285054572412076
sS'http://www.etracker.de/privacy?et=V23Jbb&amp;languageId=2'
p17
F0.00010231783106918103
sS'http://mikepillowsphoto.wordpress.com/2013/01/04/the-thread-that-connects-us-all/'
p18
F0.00010552178533375318
sS'http://jobs.wordpress.net/2013/01/10/diy-home-improvement-experts-with-a-knack-for-writing-wanted/'
p19
F0.00013302553630429337
sS'http://en.support.wordpress.com/tag/sort-pages/'
p20
F0.00010106025222067651
sS'http://t13n.googlecode.com/svn/trunk/blet/docs/help.html'
p21
F0.00010299644835347539
sS'http://theme.wordpress.com/themes/twentyeleven/'
p22
F0.00013565493728808723
sS'http://gravatar.com/umeshcu'
p23
F0.00010384056439145699
sS'http://www.notfall-plan.com/notfallplan-pages/impressum/widerruf.php'
p24
F0.00031733202230275223
sS'http://en.blog.wordpress.com/2012/03/15/build-your-audience/'
p25
F0.00010022871867234076
sS'http://en.blog.wordpress.com/category/wordpresscom/'
p26
F0.00010530779669360865
sS'http://jkudish.com'
p27
F0.00010098010424129149
sS'http://en.support.wordpress.com/images/#upload-images-from-your-computer'
p28
F0.00010189684977992326
sS'http://en.support.wordpress.com/audio/#playlist'
p29
F0.00010087874253140002
sS'http://translate.os.cs.teiath.gr/el/WordPressThemes'
p30
F0.0001006537880291072
sS'http://s.wordpress.org/about/images/logos/wordpress-logo-hoz-rgb.png'
p31
F0.0001008873366870441
sS'http://malaysia.wordpress.net/muatturun'
p32
F0.0001006537880291072
sS'http://code.google.com/p/spaz'
p33
F0.00010130507806323114
sS'http://jobs.wordpress.net/2013/01/05/seeking-business-partners/'
p34
F0.0001258431779164268
sS'http://lists.automattic.com/mailman/listinfo/wp-testers'
p35
F0.00023998957826229284
sS'https://dev.twitter.com/docs/faq/#6974'
p36
F0.00010152311539669987
sS'http://jobs.wordpress.net/2013/01/01/wordpress-damaged-2/'
p37
F0.00011899138548606307
sS'http://wordpress.org/development/2010/01/2010-open-source-design/'
p38
F0.00010130172710510673
sS'http://twitter.com'
p39
F0.00010244396560927428
sS'http://www.vianegativa.us/category/humor/'
p40
F0.00017218228140116485
sS'http://s.wordpress.org/about/images/desktops/wp-dkblue-orange-2880x1800.png'
p41
F0.0001008873366870441
sS'http://lists.automattic.com/mailman/listinfo/wp-xmlrpc'
p42
F0.0002562752943394529
sS'http://en.support.wordpress.com/widgets/author-grid-widget/'
p43
F0.00014515750766418224
sS'http://en.support.wordpress.com/themes/premium-themes/'
p44
F0.00010763186514937801
sS'http://hi.wordpress.org'
p45
F0.0001006537880291072
sS'http://www.vianegativa.us/category/poetics/'
p46
F0.00017218228140116485
sS'http://gravatar.com/firozebalsara'
p47
F0.00010354206474523423
sS'http://jobs.wordpress.net/2013/01/08/d-t-a-website-for-relationships/'
p48
F0.00012638059692318237
sS'http://www.vianegativa.us/2010/06/how-to-format-poetry-on-the-web-an-incomplete-guide/#comment-30909'
p49
F0.00010030841198269403
sS'http://en.support.wordpress.com/tag/upgrade/'
p50
F0.00010220249666446392
sS'http://en.support.wordpress.com/shortcode/'
p51
F0.00010321076195395839
sS'http://svn.automattic.com/wordpress-i18n/sr_RS/'
p52
F0.0001006537880291072
sS'http://translate.sourceforge.net/wiki/decathlon/wordpress'
p53
F0.0001006537880291072
sS'http://en.support.wordpress.com/tag/uploading/'
p54
F0.00010330970249896481
sS'http://www.notfall-plan.com/notfallplan-pages/news-presse.php'
p55
F0.00031733202230275223
sS'http://jobs.wordpress.net/category/wordpress-programmer-positions/'
p56
F0.0005556955766004229
sS'http://twitter.com/memberful'
p57
F0.00011196918983912128
sS'http://www.google.com/intl/en/privacy.html'
p58
F0.0001415543250567293
sS'http://jobs.wordpress.net/2012/12/25/wordpress-expert-for-an-online-support-role/'
p59
F0.00011899260877643238
sS'http://gravatar.com/hipdomestic'
p60
F0.00010356789512346665
sS'http://tech.groups.yahoo.com/group/wpgarage/'
p61
F0.00010130172710510673
sS'http://www.westciv.com/style_master/academy/css_tutorial/'
p62
F0.00010176416640776766
sS'http://donncha.wordpress.com/'
p63
F0.00010165782306174295
sS'http://example.wordpress.com/about/life-story/'
p64
F0.00010106025222067651
sS'http://macmanx.com/'
p65
F0.00010362720991114354
sS'http://svn.automattic.com/wordpress-i18n/et/'
p66
F0.0001006537880291072
sS'http://gravatar.com/jirisr'
p67
F0.00010180754115554537
sS'http://svn.automattic.com/wordpress-i18n/cy/branches/1.5.2/messages/theme-cy.mo'
p68
F0.0001006537880291072
sS'http://directory.codepoet.com/browse/regions/south-america/'
p69
F0.00010313193516698812
sS'http://faq.wordpress.com/2006/11/10/domain-mapping/'
p70
F0.00010090235567271169
sS'http://www.twitter.com/tos'
p71
F0.00010330487594498015
sS'http://translate.wordpress.org/projects/wp/3.1.x/ms/kk/default'
p72
F0.0001006537880291072
sS'http://hu.wordpress.org'
p73
F0.0001006537880291072
sS'http://jane.wordpress.com'
p74
F0.00010119153277100743
sS'http://directory.codepoet.com/browse/services/plugin-development/'
p75
F0.00011300904385579583
sS'http://en.support.wordpress.com/wordpresscom-search/'
p76
F0.00011157876706443968
sS'http://en.support.wordpress.com/widgets/milestone-widget/'
p77
F0.00014242938220032387
sS'http://gravatar.com/cnureddyat'
p78
F0.00010347800079527257
sS'http://en.support.wordpress.com/settings/discussion-settings/follow_blog/'
p79
F0.00010162913630367059
sS'http://wordpressfoundation.org/comments/feed/'
p80
F0.00014471650738561792
sS'http://www.twitter.com/bobsrants'
p81
F0.00010183203908818382
sS'http://dokupress.de/'
p82
F0.00010207422576159614
sS'http://www.blurb.com'
p83
F0.00011943601093150341
sS'http://www.vianegativa.us/2010/06/how-to-format-poetry-on-the-web-an-incomplete-guide/#comment-14285'
p84
F0.00010030841198269403
sS'http://www.blurb.com/blurbnation/'
p85
F0.00011716482218100732
sS'http://sk.wordpress.org/'
p86
F0.00010151164364374201
sS'http://en.support.wordpress.com/audio/soundcloud-audio-player/'
p87
F0.00010564862413729358
sS'http://gravatar.com/throughharoldslens'
p88
F0.00010328913756408619
sS'https://www.etracker.com/fr/etracker-echtzeit-web-controlling-und-online-marktforschung.html'
p89
F0.0001043164791757271
sS'http://example.wordpress.com/about/my-dogs/'
p90
F0.00010106025222067651
sS'http://jobs.wordpress.net/2013/01/10/wordpress-4/'
p91
F0.00012937662933608317
sS'http://en.support.wordpress.com/tag/api/'
p92
F0.00010090639472745637
sS'http://svn.automattic.com/wordpress-i18n/id_ID'
p93
F0.0001006537880291072
sS'http://en.support.wordpress.com/tag/text-editor/'
p94
F0.00010076214967021511
sS'http://wordpress.com/apply-for-wordads/'
p95
F0.00010170338199544915
sS'http://gravatar.com/freespirit2'
p96
F0.00010232774943052634
sS'http://nl.wordpress.org'
p97
F0.0001006537880291072
sS'http://google.com/adsense/start/#utm_source=ww-en-et-storefront_adsense&amp;utm_campaign=en&amp;utm_medium=et&amp;subid=ww-en-et-storefront_adsense'
p98
F0.00010576602634891684
sS'http://gravatar.com/hovida'
p99
F0.00010404609451139749
sS'http://jobs.wordpress.net/2013/01/05/database-help/'
p100
F0.00012599924305267682
sS'http://en.support.wordpress.com/microsoft-word/#using-word-cleanly'
p101
F0.00010113013167462669
sS'http://www.zemanta.com/'
p102
F0.000155530314346035
sS'http://www.google.com/support/feedburner/'
p103
F0.00010106530475121257
sS'http://jobs.wordpress.net/2013/01/10/full-website-project-must-be-expert-with-s2member-pro/'
p104
F0.00012632789975405707
sS'http://theme.wordpress.com/themes/styles/elegant/'
p105
F0.00011409917123305778
sS'http://en.support.wordpress.com/tag/posts/'
p106
F0.00012327303498330905
sS'http://wordpressfoundation.org/contact/'
p107
F0.00014471650738561792
sS'http://www.htmlbasictutor.ca/non-breaking-space.htm'
p108
F0.00010325865939402169
sS'http://gtwebdev.com/workshop/misc/verse.php'
p109
F0.00010030841198269403
sS'http://britishasianmum.com/2013/01/09/rape-is-not-just-indias-problem/'
p110
F0.00010566019233800461
sS'http://svn.automattic.com/wordpress-i18n/uz_UZ/'
p111
F0.0001006537880291072
sS'http://lists.automattic.com/mailman/listinfo/wp-ui'
p112
F0.00025860047334190517
sS'http://gravatar.com/cjgu'
p113
F0.00010420150882111315
sS'http://wordpress.tv/2009/01/05/setting-your-discussion-settings/'
p114
F0.00010162913630367059
sS'http://www.wufoo.com/terms/'
p115
F0.00015765012407340797
sS'http://www.blurb.com/book-ideas'
p116
F0.00011716482218100732
sS'http://en.support.wordpress.com/twitter/twitter-follow-button/'
p117
F0.0001056449406726916
sS'http://www.blurb.com/magazine'
p118
F0.00011830680412119165
sS'http://mattnt.com/'
p119
F0.00010364001478368958
sS'http://svn.automattic.com/wordpress-i18n/cy/branches/1.5.2/messages/cy.mo'
p120
F0.0001006537880291072
sS'http://www.vianegativa.us/category/natureecology/plummers-hollow/'
p121
F0.00017218228140116485
sS'http://en.blog.wordpress.com/'
p122
F0.00012391651765801393
sS'http://wordpress.co.ua/'
p123
F0.00010223230968575575
sS'https://twitter-api.wordpress.com'
p124
F0.00010090639472745637
sS'http://nb.niichavo.org/wordpress-in-bulgarian/'
p125
F0.0001006537880291072
sS'http://funkatron.com/apps/spaz/AIR/whatsnew.html'
p126
F0.00010130507806323114
sS'http://gravatar.com/spinanelcactus'
p127
F0.00010384056439145699
sS'http://is.wordpress.org/'
p128
F0.0001006537880291072
sS'http://www.blurb.com/help'
p129
F0.00011716482218100732
sS'http://support.wordpress.com/archives-shortcode/'
p130
F0.00010097784015488253
sS'http://svn.automattic.com/wordpress-i18n/sv_SE/tags/3.1.4/messages/'
p131
F0.0001006537880291072
sS'http://buddypress.org/community/groups/wordpress-en-galego/'
p132
F0.00010556166712429431
sS'http://twitter.com/home?status=Formatting poems and simple HTML - http://everything2.com/s/h3Et'
p133
F0.00010047698059100642
sS'http://s.wordpress.org/about/images/desktops/wp-orange-640x960.png'
p134
F0.0001008873366870441
sS'http://s.wordpress.org/about/images/desktops/wp-dark-lo-1024x768.png'
p135
F0.0001008873366870441
sS'http://wordpress.net.vn/'
p136
F0.0001006537880291072
sS'http://gravatar.com/1958fec'
p137
F0.00010384056439145699
sS'http://en.support.wordpress.com/videos/'
p138
F0.000129596219662562
sS'https://www.etracker.com/de/etracker-produkte-echtzeit-web-controlling-visitor-voice/web-controlling-echtzeit-web-analysen-statt-logfile-analyse.html'
p139
F0.00010122584424359735
sS'http://en.support.files.wordpress.com/2012/07/my-community1.jpg'
p140
F0.00010116290360935399
sS'http://en.support.wordpress.com/widgets/tag-cloud-widget/'
p141
F0.00014709649888458438
sS'http://skeltoac.com/acs_cashmerino_socks.jpg'
p142
F0.00010098010424129149
sS'http://help.wufoo.com/articles/en_US/SurveyMonkeyArticleType/Account-Manager'
p143
F0.00015561569348535915
sS'http://thethemefoundry.com/'
p144
F0.00011826015481551411
sS'http://en.support.wordpress.com/widgets/goodreads-widget/goodreads2/'
p145
F0.00010113235375533204
sS'http://toni.org/'
p146
F0.00010344157328216882
sS'http://support.wordpress.com/custom-css/'
p147
F0.00010072982770592996
sS'http://jobs.wordpress.net/2013/01/08/migrating-bbpress-forum-1-03-to-wordpress-2-12/'
p148
F0.00012594296786129776
sS'http://perevod.kloop.kg'
p149
F0.00010089155808329406
sS'http://www.vianegativa.us/author/chris/'
p150
F0.00017218228140116485
sS'http://michaelpick.wordpress.com'
p151
F0.00010098010424129149
sS'https://www.etracker.com/index.php?id=174&L=0'
p152
F0.000246239909843731
sS'https://www.etracker.com/index.php?id=174&L=1'
p153
F0.00016126306308844872
sS'http://en.blog.wordpress.com/tag/freshly-pressed/'
p154
F0.00010069326907678689
sS'http://twitter.com/intent/user?screen_name=episod'
p155
F0.00010540064744260196
sS'http://gravatar.com/7monk'
p156
F0.00010308742044729568
sS'http://en.support.wordpress.com/tag/glotpress/'
p157
F0.000101061125313721
sS'http://www.notfall-plan.com'
p158
F0.00031733202230275223
sS'http://en.support.wordpress.com/visual-editor/#row-1'
p159
F0.00010069326907678689
sS'http://en.forums.wordpress.com/topic/tamil-translation-1'
p160
F0.00010239718359998586
sS'http://www.vianegativa.us/author/steven/'
p161
F0.00017218228140116485
sS'http://jobs.wordpress.net/2013/01/05/need-magic-members-integrated-with-cc-bill/'
p162
F0.00012563448842784587
sS'http://en.support.wordpress.com/css-basics/'
p163
F0.00010088553694859601
sS'https://www.etracker.com/'
p164
F0.00010154006215101957
sS'http://www.flickr.com/photos/jrtashjian/7491619732/'
p165
F0.00010098010424129149
sS'http://www.blurb.es?redirect=true'
p166
F0.0001291806110918928
sS'http://en.support.wordpress.com/tag/image/'
p167
F0.00010419980465395138
sS'http://support.wordpress.com/links/#visual-editor-links'
p168
F0.00010097784015488253
sS'https://application.etracker.com/registration.php?formData[packageIds][]=48'
p169
F0.00010053629586366203
sS'https://application.etracker.com/registration.php?formData[packageIds][]=49'
p170
F0.00010053629586366203
sS'http://jobs.wordpress.net/2013/01/01/need-csshtmlphpwordpress-developer-for-wp-category-menu-lesson/'
p171
F0.00011915936041137292
sS'http://en.support.wordpress.com/tag/parent/'
p172
F0.00010106025222067651
sS'http://gravatar.com/photecstasy'
p173
F0.00010288378406847586
sS'http://en.support.wordpress.com/comments/pingbacks/'
p174
F0.00010162034983790498
sS'http://snooplion.com'
p175
F0.00010380877070940341
sS'http://jobs.wordpress.net/2013/01/05/cross-domain-single-sign-on-using-saml-2-0-protocol/'
p176
F0.00012616069700792756
sS'http://en.support.wordpress.com/tag/pings/'
p177
F0.00010263279408233883
sS'http://theme.wordpress.com/themes/bueno/'
p178
F0.00010149410873731322
sS'http://byotos.com/'
p179
F0.0001026220571558864
sS'http://svn.automattic.com/wordpress-i18n/gl_ES/tags/3.2/'
p180
F0.0001006537880291072
sS'http://www.youtube.com/watch?v=iAceed8sW1o'
p181
F0.00010576602634891684
sS'http://www.blurb.com/affiliates'
p182
F0.00012437497449076682
sS'http://www.vianegativa.us/2010/06/weeding/'
p183
F0.00010030841198269403
sS'http://support.wordpress.com/settings/privacy-settings/'
p184
F0.00010317841950050993
sS'http://translate.wordpress.org/projects/wp/dev/fo/default'
p185
F0.0001006537880291072
sS'http://jobs.wordpress.net/2013/01/08/theme-update-beta-site-setup-new-plugins/'
p186
F0.00012584150122968172
sS'http://gravatar.com/whatsernamejewelry'
p187
F0.00010347800079527257
sS'http://forum.wpde.org/'
p188
F0.00010572102678581605
sS'http://s.wordpress.org/about/images/desktops/wp-light-hi-1440x900.png'
p189
F0.0001008873366870441
sS'http://jquery.com'
p190
F0.00010130507806323114
sS'http://jobs.wordpress.net/2013/01/05/wordpress-developer-and-designer/'
p191
F0.00012616079199791324
sS'http://get.adobe.com/air'
p192
F0.00010130507806323114
sS'http://en.support.wordpress.com/tag/discussion/'
p193
F0.00010113722950938969
sS'http://br.forums.wordpress.org'
p194
F0.00010316406946196551
sS'http://s.wordpress.org/about/images/desktops/wp-dark-lo-640x960.png'
p195
F0.0001008873366870441
sS'http://jobs.wordpress.net/2013/01/10/uk-wordpress-developer-remote/'
p196
F0.00012952769534265094
sS'http://en.support.wordpress.com/tag/cnnmoney/'
p197
F0.00010112435163687178
sS'http://en.support.wordpress.com/custom-design/editing-css/'
p198
F0.0001054355338455679
sS'http://svn.automattic.com/wordpress-i18n/fo/branches/2.3/messages/fo.mo'
p199
F0.0001006537880291072
sS'http://vi.wordpress.org'
p200
F0.0001006537880291072
sS'http://support.wordpress.com/space-upgrade/'
p201
F0.0001057460183635553
sS'http://en.support.wordpress.com/pages/page-screen/'
p202
F0.00010915952305734727
sS'http://en.support.wordpress.com/widgets/gravatar-widget/'
p203
F0.00014659615370239
sS'http://dreaminginbetween.com'
p204
F0.00010098010424129149
sS'http://en.support.wordpress.com/widgets/about-me/'
p205
F0.00014244151849849646
sS'http://en.support.wordpress.com/editors/#switching-editors'
p206
F0.00010304774532631198
sS'http://neurotaylor.com/2013/01/09/why-good-writing-matters/'
p207
F0.00010566447875554707
sS'http://gravatar.com/pichsopheak'
p208
F0.00010337315986230274
sS'http://twitter.com/dries'
p209
F0.00010167479075737416
sS'http://svn.automattic.com/wordpress-i18n/ni_ID'
p210
F0.0001006537880291072
sS'http://br.blurb.com?redirect=true'
p211
F0.0001291806110918928
sS'http://en.wikipedia.org/wiki/Emacs'
p212
F0.00012622517075260717
sS'http://www.etracker.com/de/agb.html'
p213
F0.000246239909843731
sS'http://blog.gravatar.com/'
p214
F0.0005839045438208799
sS'http://svn.automattic.com/wordpress-i18n/fo/'
p215
F0.0001006537880291072
sS'http://theme.wordpress.com/themes/subjects/music/'
p216
F0.00011143817780060663
sS'http://help.wufoo.com/articles/en_US/SurveyMonkeyArticleType/User-Management'
p217
F0.00015561569348535915
sS'http://gravatar.com/frangipani61'
p218
F0.00010337315986230274
sS'http://en.support.wordpress.com/tag/hit-counter/'
p219
F0.00010114966393052016
sS'http://jobs.wordpress.net/faq'
p220
F0.0005556955766004229
sS'http://automattic.com/'
p221
F0.00037638084906374704
sS'http://gravatar.com/bestrockmusical'
p222
F0.00010238299549540644
sS'http://comox.textdrive.com/pipermail/docs/'
p223
F0.00010130172710510673
sS'http://jobs.wordpress.net/2013/01/08/modify-wordpress-events-manager-plugin/'
p224
F0.00012610442067046177
sS'https://launchpad.net/~wpaz'
p225
F0.0001006537880291072
sS'http://en.support.wordpress.com/links/image-links/'
p226
F0.00010556568935332147
sS'http://www.etracker.com'
p227
F0.0003901480765830477
sS'http://en.wikipedia.org/wiki/Cowboy_coding'
p228
F0.00012622517075260717
sS'http://en.support.wordpress.com/tag/images/'
p229
F0.00010707141289246973
sS'http://dailypost.wordpress.com/2011/07/21/whats-your-style/'
p230
F0.00010069326907678689
sS'http://gravatar.com/fjcps'
p231
F0.00010222332003956915
sS'http://en.forums.wordpress.com/topic/validator-for-norwegian-bokmal'
p232
F0.00010239718359998586
sS'http://bbpress.org/blog/category/team/'
p233
F0.0001046043870722306
sS'http://en.support.wordpress.com/widgets/goodreads-widget/edit_goodreads_widget-png/'
p234
F0.00010113235375533204
sS'http://en.support.wordpress.com/widgets/akismet-widget/'
p235
F0.0001465982411120291
sS'https://twitter.com/wordpressdotcom/status/204557548249026561'
p236
F0.00010198925995546312
sS'http://jobs.wordpress.net/2012/12/25/teach-me-to-load-wordpress-manually/'
p237
F0.00012885235272374208
sS'http://kozosseg.wphu.org/forumok'
p238
F0.00010621727100242699
sS'http://www.google.com/chrome'
p239
F0.000112728497109561
sS'http://en.support.wordpress.com/uploading-documents/'
p240
F0.00011330430768931569
sS'http://vip.wordpress.com/partners/#partners-agency'
p241
F0.0001045642040200864
sS'http://help.wufoo.com/articles/en_US/SurveyMonkeyArticleType/Form-Manager'
p242
F0.00015561569348535915
sS'http://www.htmlhelp.com/reference/css/'
p243
F0.00010176416640776766
sS'http://en.support.wordpress.com/widgets/goodreads-widget/goodreads1/'
p244
F0.00010113235375533204
sS'http://www.flickr.com/explore/video/'
p245
F0.00010114642772587085
sS'http://www.vianegativa.us/2010/06/how-to-format-poetry-on-the-web-an-incomplete-guide/#comment-14279'
p246
F0.00010030841198269403
sS'http://en.support.wordpress.com/request-feedback/'
p247
F0.0001013521531492477
sS'http://en.wikipedia.org/wiki/Micro_Adventure'
p248
F0.00012622517075260717
sS'http://viddler.com'
p249
F0.00010114171474400793
sS'http://www.vianegativa.us/2010/06/how-to-format-poetry-on-the-web-an-incomplete-guide/#comment-14275'
p250
F0.00010030841198269403
sS'http://twitter.com/home?status=Formatting poems and simple HTML - http://everything2.com/s/hMxo'
p251
F0.00010047698059100642
sS'http://en.forums.wordpress.com/topic/danish-validator-1'
p252
F0.00010239718359998586
sS'http://en.wordpress.com/music/'
p253
F0.00010950215760597074
sS'http://del.icio.us/post?url=http://everything2.com/user/%252Fdev%252Fjoe/writeups/Formatting+poems+and+simple+HTML&title=Formatting poems and simple HTML'
p254
F0.00010047698059100642
sS'http://www.etracker.com/gb/presse.html'
p255
F0.00010239021990332323
sS'http://en.wordpress.com/products/'
p256
F0.00010090235567271169
sS'http://www.vianegativa.us/2010/06/how-to-format-poetry-on-the-web-an-incomplete-guide/#comment-14273'
p257
F0.00010030841198269403
sS'http://en.forums.wordpress.com/topic/how-to-make-wordpresscom-forums-and-support-available-in-tagalog'
p258
F0.00010239718359998586
sS'http://www.etracker.de/produkte/'
p259
F0.00010158434586200788
sS'http://en.support.wordpress.com/videopress/restrict-videopress-playback-by-domain/'
p260
F0.00010336757792333393
sS'http://www.blurb.com/ebook'
p261
F0.00011716482218100732
sS'http://en.support.wordpress.com/tag/video/'
p262
F0.0001173109595374165
sS'http://en.support.wordpress.com/tag/media/'
p263
F0.0001042376644153536
sS'http://udvikling.wp-danmark.dk/'
p264
F0.00010201416568900759
sS'http://en.support.wordpress.com/twitter/'
p265
F0.0001174285467287447
sS'http://isaackeyet.com/blog'
p266
F0.00010098010424129149
sS'http://en.support.wordpress.com/tag/submenus/'
p267
F0.00010106025222067651
sS'http://zeldman.com/dwws/'
p268
F0.00010176416640776766
sS'http://en.wikipedia.org/wiki/Semantic_Web'
p269
F0.0001253855540710962
sS'http://s.wordpress.org/about/images/desktops/wp-light-lo-2880x1800.png'
p270
F0.0001008873366870441
sS'http://www.dub.de/unternehmensnachfolge'
p271
F0.00010141573970745152
sS'http://en.forums.wordpress.com/topic/esperanto-validator'
p272
F0.00010239718359998586
sS'http://www.timparkin.co.uk/2012/10/great-british-landscapes-a-new-photography-magazine/#comment-5118'
p273
F0.00010133213779938133
sS'http://www.timparkin.co.uk/2012/10/great-british-landscapes-a-new-photography-magazine/#comment-5119'
p274
F0.00010133213779938133
sS'http://georgianisation.site88.net/?p=3'
p275
F0.0001006537880291072
sS'http://en.support.wordpress.com/videos/videolog/'
p276
F0.00011324628633020524
sS'http://vip.wordpress.com/why-vip/'
p277
F0.0001585225051174889
sS'http://www.vianegativa.us/2010/06/how-to-format-poetry-on-the-web-an-incomplete-guide/#comment-14256'
p278
F0.00010030841198269403
sS'http://svn.automattic.com/wordpress/trunk/'
p279
F0.00010130172710510673
sS'http://www.vianegativa.us/author/peter/'
p280
F0.00017218228140116485
sS'http://mnmlist.com/minimalist-faqs/'
p281
F0.00010098010424129149
sS'http://www.bywebline.org/'
p282
F0.0001006537880291072
sS'http://it.blurb.com'
p283
F0.00011836564356077297
sS'http://wordpressfoundation.org/projects/'
p284
F0.00014471650738561792
sS'http://www.etracker.com/layoutAPI?id=MainPageI3000'
p285
F0.000246239909843731
sS'https://www.etracker.com/es/etracker-web-controlling-en-tiempo-real-y-estudio-de-mercad.html'
p286
F0.00010353508232791538
sS'http://lists.automattic.com/mailman/listinfo/wp-accessibility'
p287
F0.0002562752943394529
sS'http://blog.turbotax.intuit.com/'
p288
F0.00010843458833306384
sS'http://gravatar.com/mspinkysartimpressions'
p289
F0.00010148803924076567
sS'http://writingthroughthefog.com'
p290
F0.00010208910447407696
sS'http://ug.wordpress.org/'
p291
F0.00010089155808329406
sS'http://vip.wordpress.com/blog/'
p292
F0.0001585225051174889
sS'http://wordpress.tv/2012/10/11/felipe-coelho-kussik-wordpress-total/'
p293
F0.0001055892616053573
sS'http://www.google.com/privacy.html'
p294
F0.00012449951978182877
sS'http://jobs.wordpress.net/2013/01/01/501c3-non-profit-iso-donated-wp-pluginsthemes/'
p295
F0.00012905600418476682
sS'http://www.vianegativa.us/category/memoir/'
p296
F0.00017218228140116485
sS'http://en.support.wordpress.com/widgets/boxnet-widget/'
p297
F0.00014530465000047428
sS'http://wp-support.se/forum/'
p298
F0.0001006537880291072
sS'http://blurb.custhelp.com/cgi-bin/blurb.cfg/php/enduser/home_std_alp.php'
p299
F0.00011716482218100732
sS'http://en.forums.wordpress.com/bb-login.php?redirect_to=http://en.forums.wordpress.com/forum/translations#postform'
p300
F0.00010239718359998586
sS'http://wp-persian.com/'
p301
F0.0001172935090329053
sS'http://wufoo.com/2010/08/19/using-wufoo-forms-in-fixed-height-containers/'
p302
F0.00010402672091331228
sS'http://en.support.wordpress.com/videos/ted-talks/'
p303
F0.00011467128534988626
sS'http://jquery.com/'
p304
F0.00010461447719548454
sS'http://gravatar.com/almaliknews'
p305
F0.00010317852731468844
sS'http://lists.automattic.com/mailman/listinfo/wp-edu'
p306
F0.0002549323819439651
sS'http://en.support.wordpress.com/tag/ted/'
p307
F0.0001011467129024999
sS'http://gravatar.com/bloggedbykate'
p308
F0.00010322128820067347
sS'http://support.wordpress.com/editors'
p309
F0.00010076214967021511
sS'http://gravatar.com/plantinglittleseeds'
p310
F0.0001035908448528976
sS'http://www.blurb.fr?redirect=true'
p311
F0.0001291806110918928
sS'http://www.python.org/'
p312
F0.00011599999999999997
sS'http://pl.wordpress.org/'
p313
F0.00010089155808329406
sS'http://www.blurb.com/make/bookify'
p314
F0.00013257828757340997
sS'http://jobs.wordpress.net/2013/01/10/freelance-wordpress-designers/'
p315
F0.0001314148991854412
sS'http://gravatar.com/postergrrrl'
p316
F0.00010268323888407095
sS'http://s.wordpress.org/about/images/desktops/wp-dark-lo-2048x1536.png'
p317
F0.0001008873366870441
sS'http://gravatar.com/aliigarris'
p318
F0.00010318430732079645
sS'http://gl.wordpress.org/'
p319
F0.00010122500633607836
sS'http://en.support.wordpress.com/wordpress-com-for-music/'
p320
F0.0001109412371640428
sS'http://sr.wordpress.org/'
p321
F0.0001006537880291072
sS'http://www.notfall-plan.com/notfallplan-pages/support-download.php'
p322
F0.00031733202230275223
sS'http://en.blog.wordpress.com/2013/01/09/oxygen-and-confit/'
p323
F0.00010727169689985448
sS'http://en.support.wordpress.com/tag/documents/'
p324
F0.00010109208978413388
sS'http://en.support.wordpress.com/tag/story/'
p325
F0.00010097784015488253
sS'http://gravatar.com/fapturaintegralfeminina'
p326
F0.00010328913756408619
sS'http://en.support.wordpress.com/domain-mapping/'
p327
F0.00010563270946832257
sS'http://support.wordpress.com/contact'
p328
F0.0001021921584913251
sS'http://svn.automattic.com/wordpress-i18n/fo/branches/2.9/messages/fo.mo'
p329
F0.0001006537880291072
sS'http://jobs.wordpress.net/2012/12/29/wordpress-designer-needed-immediately/'
p330
F0.0001306904162954143
sS'http://www.blurb.com/gifts'
p331
F0.00011716482218100732
sS'http://gravatar.com/courtenayx'
p332
F0.00010371264478811317
sS'http://gravatar.com/theheidelberger'
p333
F0.00010294494012033277
sS'http://directory.codepoet.com/browse/services/training/'
p334
F0.00011618233416990795
sS'http://gravatar.com/pamanpriyorohansum'
p335
F0.00010300215376371023
sS'http://en.support.wordpress.com/settings/discussion-settings/#comment-moderation'
p336
F0.00010112384810798983
sS'http://www.google.com/support/forum/p/AdSense/?hl=en&amp;utm_source=ww-en-et-storefront_adsense&amp;utm_campaign=en&amp;utm_medium=et'
p337
F0.00010576602634891684
sS'http://wp.me/p2opoh-7S'
p338
F0.00010022871867234076
sS'http://s.wordpress.org/about/images/desktops/wp-light-hi-2560x1440.png'
p339
F0.0001008873366870441
sS'http://gravatar.com/summit4sucess'
p340
F0.00010171817084909758
sS'http://www.peachpit.com/bookstore/product.asp?isbn=0321303474&amp;rl=1'
p341
F0.00010176416640776766
sS'http://en.forums.wordpress.com/topic/spelling-error-in-french-wordpress-please-correct'
p342
F0.00010239718359998586
sS'http://gravatar.com/sienzuf'
p343
F0.00010384056439145699
sS'http://help.wufoo.com/articles/en_US/SurveyMonkeyArticleType/Theme-Designer'
p344
F0.00015561569348535915
sS'http://www.bandpage.com/'
p345
F0.00010113873014088568
sS'http://theme.wordpress.com/themes/styles/colorful/'
p346
F0.0001083499183410916
sS'http://www.blurb.com/facebook-books'
p347
F0.00012204341627014028
sS'http://en.support.wordpress.com/domains/map-existing-domain/'
p348
F0.00011493658458962418
sS'http://zxcode.com/'
p349
F0.00010255791837015968
sS'http://en.support.wordpress.com/pages/hide-pages/'
p350
F0.00011055394149857106
sS'http://www.etracker.com/'
p351
F0.00010158253951176856
sS'http://vimeo.com/44633289%5D'
p352
F0.00010106958246280049
sS'http://support.wordpress.com/videopress/'
p353
F0.00010319832277620124
sS'http://vip.wordpress.com/our-services/'
p354
F0.0001585225051174889
sS'http://tismond.wordpress.com/2013/01/09/a-poem-to-all-my-fellow-insomniatic-writers/'
p355
F0.00010564783442076236
sS'http://svn.automattic.com/wordpress-i18n/sv_SE/tags/3.1.1/messages/'
p356
F0.0001006537880291072
sS'http://en.support.wordpress.com/widgets/follow-blog-widget/'
p357
F0.00014455150623097322
sS'http://au.blurb.com'
p358
F0.00011833780847844844
sS'http://jobs.wordpress.net/2012/12/29/search-results-filter-by-category-and-sort-by-price-option/'
p359
F0.00011898413018446587
sS'http://jobs.wordpress.net/2012/12/25/fresh-manual-installation-of-wp-mu-does-not-work/'
p360
F0.00011944223282159796
sS'http://s.wordpress.org/about/images/wpmini-grey.png'
p361
F0.0001008873366870441
sS'http://www.blurb.com/shipping'
p362
F0.00011716482218100732
sS'http://www.carolinemoore.net'
p363
F0.00010098010424129149
sS'http://www.wordpress.com/'
p364
F0.00010069326907678689
sS'http://wordpressfoundation.org/2010/trademark/'
p365
F0.00014900473303538337
sS'http://www.blurb.com/create-photo-books'
p366
F0.0001231853982103246
sS'http://www.vianegativa.us/author/abdul-walid/'
p367
F0.00017218228140116485
sS'http://gravatar.com/bluebutterfliesandme'
p368
F0.00010327609566203822
sS'http://www.blurb.com/events'
p369
F0.00012812425369184173
sS'http://www.flickr.com/photos/laughingsquid/207283795/'
p370
F0.00010098010424129149
sS'http://del.icio.us/post?url=http://everything2.com/user/Magenta/writeups/Formatting+poems+and+simple+HTML&title=Formatting poems and simple HTML'
p371
F0.00010047698059100642
sS'http://en.support.wordpress.com/widgets/authors-widget/'
p372
F0.00014515750766418224
sS'http://pentophoto.wordpress.com/'
p373
F0.00010211471215418379
sS'http://www.etracker.de/lnkcnt.php?et=V23Jbb&amp;url=http://www.utalkmarketing.com/pages/article.aspx?articleid=21883&amp;title=how_loctite_decreased_web_drop-off_rates_/&amp;lnkname=Case_Study_Loctite'
p374
F0.00010071227979063659
sS'http://en.support.wordpress.com/pages/page-visibility/'
p375
F0.00010918794724180025
sS'http://jobs.wordpress.net/2013/01/01/seeking-freelance-wp-designers/'
p376
F0.00013109678919446678
sS'http://newsfeed.time.com/'
p377
F0.00010527795312955125
sS'http://en.blog.wordpress.com/2011/10/10/3-ways-to-make-your-site-more-visually-appealing/'
p378
F0.00010069326907678689
sS'http://www.wufoo.com/privacy/'
p379
F0.00015765012407340797
sS'http://de.wikipedia.org/wiki/Advanced_Encryption_Standard'
p380
F0.00018930378522840307
sS'http://jobs.wordpress.net/2012/12/29/banner-ad-fix/'
p381
F0.00011970285193591659
sS'http://wikimediafoundation.org/wiki/Fundraising'
p382
F0.000520490978676508
sS'http://www.vianegativa.us/2010/06/available-light/'
p383
F0.00010093436151146087
sS'http://www.chrisfinke.com/'
p384
F0.00010285010617180386
sS'http://en.red-dot.org/'
p385
F0.00010021722793104838
sS'http://www.blurb.com/tutorials'
p386
F0.00011716482218100732
sS'http://en.support.wordpress.com/tag/applications/'
p387
F0.00010111601835792678
sS'http://jobs.wordpress.net/2012/12/29/wordpress-web-developer-3/'
p388
F0.0001311074083526848
sS'http://www.isriya.com/node/1156'
p389
F0.0001006537880291072
sS'http://s.wordpress.org/about/images/logos/wordpress-logo-32.png'
p390
F0.0001008873366870441
sS'http://s.wordpress.org/about/images/logos/wordpress-logo-simplified-rgb.png'
p391
F0.0001008873366870441
sS'http://en.support.wordpress.com/tag/template/'
p392
F0.00010106025222067651
sS'http://www.alistapart.com/articles/ebookstandards/'
p393
F0.00010130899464588527
sS'http://svn.automattic.com/wordpress-i18n/sv_SE/tags/3.2/messages/'
p394
F0.0001006537880291072
sS'http://www.notfall-plan.com/notfallplan-pages/wissenswertes/notfallplan-firmen.php'
p395
F0.00014946147653387
sS'http://en.support.wordpress.com/tag/order/'
p396
F0.00010106025222067651
sS'http://gravatar.com/danozafar'
p397
F0.00010368488138631451
sS'http://apiwiki.twitter.com/Twitter-API-Documentation'
p398
F0.00010090639472745637
sS'http://dailypost.wordpress.com//?s=grammar'
p399
F0.00010069326907678689
sS'http://www.vianegativa.us/2013/01/whither-the-mountains-of-yesteryear/'
p400
F0.00017218228140116485
sS'http://help.wufoo.com/articles/en_US/SurveyMonkeyArticleType/Rule-Builder'
p401
F0.00015561569348535915
sS'http://codex.wordthai.com'
p402
F0.00011170194583742606
sS'http://help.wufoo.com/articles/en_US/SurveyMonkeyArticleType/Getting-Started-With-Wufoo'
p403
F0.00015561569348535915
sS'http://www.isup.me'
p404
F0.00012693075577759687
sS'http://sq.wordpress.org/'
p405
F0.0001006537880291072
sS'http://gravatar.com/samndex'
p406
F0.00010384056439145699
sS'http://vip.wordpress.com/contact/'
p407
F0.0001585225051174889
sS'http://en.support.wordpress.com/posts/post-visibility/'
p408
F0.00011084626747507229
sS'http://www.separatista.net/forum/'
p409
F0.00010168349430052416
sS'http://support.wordpress.com/domain-mapping/register-domain/'
p410
F0.00010586412548993505
sS'http://fosscon.org'
p411
F0.00010089948253953173
sS'http://www.etracker.com/gb/sitemap.html'
p412
F0.00010239021990332323
sS'http://jobs.wordpress.net/2012/12/25/wordpress-website-develpment/'
p413
F0.00011578774409774704
sS'http://aquashift.wordpress.com/2013/01/07/writing-challenge-map-it-out-the-slow-motion-black-and-white-movie/'
p414
F0.00010593796788547146
sS'http://en.forums.wordpress.com/topic/greek-translation'
p415
F0.00010239718359998586
sS'http://wordpress.org/extend/'
p416
F0.00010625568533454922
sS'http://planet.wpde.org/'
p417
F0.0001202873896170653
sS'http://vimeo.com/'
p418
F0.0001017417304013177
sS'https://www.etracker.com/de/etracker-produkte-echtzeit-web-controlling-visitor-voice/visitor-voice-besucherbefragung-kundenzufriedenheit.html'
p419
F0.00010122584424359735
sS'https://www.etracker.com/index.php?id=48&L=0'
p420
F0.000246239909843731
sS'http://svn.automattic.com/wordpress-i18n/fo/branches/2.6/messages/fo.mo'
p421
F0.0001006537880291072
sS'http://www.blurb.de'
p422
F0.00011835623739887999
sS'http://www.timparkin.co.uk/2012/10/great-british-landscapes-a-new-photography-magazine/#comment-5126'
p423
F0.00010133213779938133
sS'http://help.wufoo.com/articles/en_US/SurveyMonkeyArticleType/Widgets'
p424
F0.00015561569348535915
sS'http://www.vianegativa.us/category/poems/'
p425
F0.00017218228140116485
sS'http://www.blurb.com/instagram-books'
p426
F0.00012204341627014028
sS'http://gravatar.com/pasadena61'
p427
F0.00010264386852062455
sS'http://www.vianegativa.us/category/philosophyreligion/the-via-negativa/'
p428
F0.00017218228140116485
sS'http://www.firefox.com'
p429
F0.00011337476977674222
sS'http://www.wufoo.com/about/'
p430
F0.00015765012407340797
sS'http://mikelberry.com'
p431
F0.00010098010424129149
sS'https://application.etracker.com/registration.php?formData[packageIds][]=63'
p432
F0.00010052928546021547
sS'https://application.etracker.com/registration.php?formData[packageIds][]=66'
p433
F0.00010052928546021547
sS'https://application.etracker.com/registration.php?formData[packageIds][]=67'
p434
F0.00010052928546021547
sS'https://application.etracker.com/registration.php?formData[packageIds][]=64'
p435
F0.00010052928546021547
sS'https://application.etracker.com/registration.php?formData[packageIds][]=65'
p436
F0.00010052928546021547
sS'http://gravatar.com/gourmandisesdemel'
p437
F0.00010384451083367864
sS'https://application.etracker.com/registration.php?formData[packageIds][]=68'
p438
F0.00010052928546021547
sS'http://wavecrest.fastpencil.com'
p439
F0.00010351777914477935
sS'http://www.dailymotion.com/'
p440
F0.00010107260730533314
sS'http://www.etracker.com/gb/agb.html'
p441
F0.00016365328299177198
sS'http://svn.automattic.com/wordpress-i18n/sv_SE/tags/3.3.2/messages/'
p442
F0.0001006537880291072
sS'http://www.automattic.com/about/'
p443
F0.00010090235567271169
sS'http://code.google.com/chrome/chromeframe/'
p444
F0.000112728497109561
sS'http://en.support.wordpress.com/domains/move-domain/'
p445
F0.00011628645948263603
sS'http://en.blog.wordpress.com/tag/topics/'
p446
F0.00010022871867234076
sS'http://jobs.wordpress.net/2013/01/05/joomla-to-wp-migration-re-design/'
p447
F0.00012565043955798532
sS'http://www.hostgator.com/wordpress'
p448
F0.00010836681490524306
sS'http://gravatar.com/boshtio'
p449
F0.00010384056439145699
sS'http://www.apache.org/licenses/LICENSE-2.0'
p450
F0.00010299644835347539
sS'http://gravatar.com/torinelson'
p451
F0.00010423487964403276
sS'http://www.vianegativa.us/category/blogistan/'
p452
F0.00017218228140116485
sS'http://gravatar.com/gazoodles'
p453
F0.00010398774464179474
sS'http://about.me'
p454
F0.00010117479423358884
sS'http://wphu.org/'
p455
F0.00010621727100242699
sS'http://support.wordpress.com/archives-shortcode#options'
p456
F0.0001018229282623195
sS'http://wordpress.com/signup/?ref=lof'
p457
F0.00036126178164208573
sS'http://matiasventura.com/'
p458
F0.00010503587264610029
sS'https://application.etracker.com/registration.php?formData[packageIds][]=93'
p459
F0.00010060433339860423
sS'http://support.zemanta.com/'
p460
F0.00014895534501891222
sS'http://www.viper007bond.com/'
p461
F0.00010193095138669354
sS'http://jobs.wordpress.net/2013/01/05/buddypress-customization/'
p462
F0.00012600972875034033
sS'http://jrtashjian.com/'
p463
F0.00010244358401299475
sS'http://en.support.wordpress.com/tag/sorting/'
p464
F0.00010106025222067651
sS'http://wordpress.tv/tag/wordpresscom/'
p465
F0.00010168296237919601
sS'http://code.google.com/projecthosting/'
p466
F0.000112728497109561
sS'https://www.etracker.com/index.php?id=54&L=0'
p467
F0.000246239909843731
sS'https://www.etracker.com/es/etracker-unternehmen-web-controlling-und-analyse-software/etracker-partnerpgrogram-sales-und-technologie-partner.html'
p468
F0.00010172770104364474
sS'http://la.blurb.com/'
p469
F0.0001025945538834077
sS'http://www.blurb.com/bookstore/c-children'
p470
F0.00011716482218100732
sS'http://jobs.wordpress.net/2013/01/05/wordpress-programmer-multiple-sites/'
p471
F0.00012615462662992385
sS'http://wordpress.org/development/archives/2004/06/15/hackers/'
p472
F0.0001031776850146792
sS'http://www.vianegativa.us/category/natureecology/trees/'
p473
F0.00017218228140116485
sS'http://s.wordpress.org/about/images/desktops/wp-light-lo-1024x768.png'
p474
F0.0001008873366870441
sS'http://help.wufoo.com/articles/en_US/SurveyMonkeyArticleType/Entry-Manager'
p475
F0.00015561569348535915
sS'https://application.etracker.com/registration.php?formData[packageIds][]=50&languageId=2&currencyId=5'
p476
F0.00010125951914197935
sS'https://application.etracker.com/registration.php?formData[packageIds][]=50&languageId=2&currencyId=1'
p477
F0.00010933226019771559
sS'http://s.wordpress.org/about/images/desktops/wp-dark-lo-1440x900.png'
p478
F0.0001008873366870441
sS'http://skeltoac.com/'
p479
F0.00010272867747501658
sS'http://matt.wordpress.com/'
p480
F0.0001050040998263313
sS'http://www.blurb.com/indesign-plugin'
p481
F0.00014949610960769366
sS'http://gravatar.com/ciakcvie'
p482
F0.00010341058275820858
sS'http://www.blurb.com/bookstore/category/c-travel'
p483
F0.00011716482218100732
sS'http://support.zemanta.com/customer/en/portal/articles/715550/rate?rating=0'
p484
F0.00010351829995646453
sS'http://en.support.wordpress.com/tag/oauth/'
p485
F0.00010111601835792678
sS'http://nb.wordpress.org/'
p486
F0.00010320994590312953
sS'http://en.support.wordpress.com/trash/movetrash-2/'
p487
F0.00010078931630996986
sS'http://twitter.com/WordPressVIP/statuses/288401734760558592'
p488
F0.00012285054572412076
sS'https://application.etracker.com/registration.php?formData[packageIds][]=9'
p489
F0.00010053629586366203
sS'https://application.etracker.com/registration.php?formData[packageIds][]=8'
p490
F0.00010053629586366203
sS'http://wpdocs.sourceforge.jp/Mailing_Lists'
p491
F0.00010077135157047056
sS'http://en.support.wordpress.com/widgets/gravatar-profile-widget/'
p492
F0.00014247648259627208
sS'http://support.wordpress.com/plugins/'
p493
F0.00010615093338122118
sS'http://en.support.wordpress.com/settings/openid/'
p494
F0.00010976908944710718
sS'http://www.blurb.com/textandpictures'
p495
F0.00011716482218100732
sS'http://www.timparkin.co.uk/2012/10/great-british-landscapes-a-new-photography-magazine/'
p496
F0.00010324067945205477
sS'http://lists.automattic.com/mailman/listinfo/wp-trac'
p497
F0.0002562752943394529
sS'http://www.wordpress.co.kr/codex'
p498
F0.0001006537880291072
sS'http://jobs.wordpress.net/category/wordpress-programmer-positions/feed/'
p499
F0.0005152443051093133
sS'http://en.support.wordpress.com/tag/fiction/'
p500
F0.00010097784015488253
sS'http://en.support.wordpress.com/status/'
p501
F0.00011141255789725506
sS'http://jobs.wordpress.net/2013/01/05/part-time-wordpress-developer-5/'
p502
F0.00012610789453051688
sS'https://www.google.com/accounts/ServiceLogin?service=code&amp;ltmpl=phosting&amp;continue=http%3A%2F%2Fcode.google.com%2Fp%2Ft13n%2F&amp;followup=http%3A%2F%2Fcode.google.com%2Fp%2Ft13n%2F'
p503
F0.00010299644835347539
sS'http://philcrumm.com'
p504
F0.00010098010424129149
sS'http://wordpress.org/extend/plugins/wp-native-dashboard/'
p505
F0.00010243527100310841
sS'http://su.wordpress.org/'
p506
F0.0001006537880291072
sS'http://survivingthemodernworld.com'
p507
F0.00010198738707667675
sS'http://jobs.wordpress.net/category/wordpress-blogger-positions/feed/'
p508
F0.0005152443051093133
sS'http://en.support.wordpress.com/domains/all-about-domains/'
p509
F0.00011646944368430676
sS'http://pe.wordpress.org/'
p510
F0.0001006537880291072
sS'http://digg.com/submit?phase=2&url=http%3A%2F%2Feverything2.com%2Fuser%2F%25252Fdev%25252Fjoe%2Fwriteups%2FFormatting%2520poems%2520and%2520simple%2520HTML&title=Formatting poems and simple HTML'
p511
F0.00010047698059100642
sS'http://en.support.wordpress.com/tag/comments/'
p512
F0.0001059947932579632
sS'http://wordpress.com/#!/read/topic/poetry/'
p513
F0.00010076214967021511
sS'http://en.support.wordpress.com/trash/mediatrash-2/'
p514
F0.00010078931630996986
sS'http://codex.wordpress.org/Installing_WordPress'
p515
F0.00013829208862767964
sS'http://svn.automattic.com/wordpress-i18n/sv_SE/trunk/messages/'
p516
F0.0001006537880291072
sS'http://www.blurb.ca?redirect=true'
p517
F0.0001291806110918928
sS'http://revelryreverie.wordpress.com/'
p518
F0.00010230010560400359
sS'http://gravatar.com/johnhglen'
p519
F0.00010238417498854366
sS'http://dailypost.wordpress.com/2012/05/15/writing-controversy/'
p520
F0.00010069326907678689
sS'http://sparrowsong.wordpress.com/2013/01/07/the-51st-state-maybe/'
p521
F0.00010578353108402237
sS'http://en.blog.wordpress.com/2013/01/09/pinterest-verification/'
p522
F0.00010746599496378146
sS'http://www.vianegativa.us/category/food/'
p523
F0.00017218228140116485
sS'http://help.twitter.com/entries/77606-what-is-retweet-rt'
p524
F0.00010108061339960554
sS'http://malaysia.wordpress.net'
p525
F0.0001006537880291072
sS'http://www.vianegativa.us/2010/06/how-to-format-poetry-on-the-web-an-incomplete-guide/#comment-14255'
p526
F0.00010030841198269403
sS'http://www.timparkin.co.uk/2012/10/great-british-landscapes-a-new-photography-magazine/#comment-5132'
p527
F0.00010133213779938133
sS'http://www.timparkin.co.uk/2012/10/great-british-landscapes-a-new-photography-magazine/#comment-5133'
p528
F0.00010133213779938133
sS'http://www.timparkin.co.uk/2012/10/great-british-landscapes-a-new-photography-magazine/#comment-5130'
p529
F0.00010133213779938133
sS'http://www.timparkin.co.uk/2012/10/great-british-landscapes-a-new-photography-magazine/#comment-5131'
p530
F0.00010133213779938133
sS'http://www.timparkin.co.uk/2012/10/great-british-landscapes-a-new-photography-magazine/#comment-5136'
p531
F0.00010133213779938133
sS'http://www.timparkin.co.uk/2012/10/great-british-landscapes-a-new-photography-magazine/#comment-5137'
p532
F0.00010133213779938133
sS'http://www.timparkin.co.uk/2012/10/great-british-landscapes-a-new-photography-magazine/#comment-5134'
p533
F0.00010133213779938133
sS'https://application.etracker.com/registration.php?formData[packageIds][]=10'
p534
F0.00010053629586366203
sS'http://www.timparkin.co.uk/2012/10/great-british-landscapes-a-new-photography-magazine/#comment-5138'
p535
F0.00010133213779938133
sS'http://www.gaa.ie'
p536
F0.00010098010424129149
sS'http://gravatar.com/topraq'
p537
F0.00010022871867234076
sS'https://dev.twitter.com/docs/faq/#5824'
p538
F0.00010152311539669987
sS'http://www.vianegativa.us/2010/06/how-to-format-poetry-on-the-web-an-incomplete-guide/#comment-14251'
p539
F0.00010030841198269403
sS'http://jobs.wordpress.net/feedback/'
p540
F0.0005556955766004229
sS'http://en.support.wordpress.com/tag/quick-embed/'
p541
F0.00011087022541417246
sS'http://www.htmldog.com/guides/cssbeginner/'
p542
F0.00010176416640776766
sS'http://en.support.wordpress.com/widgets/calendar-widget/'
p543
F0.00014383740828074237
sS'http://www.wpmania.gr/forum/'
p544
F0.0001006537880291072
sS'https://signup.wordpress.com/signup/?theme=Soundcheck&amp;source=musicwpcom'
p545
F0.00010380877070940341
sS'http://en.support.wordpress.com/tag/tweet/'
p546
F0.00010198925995546312
sS'http://code.zemanta.com/silvoslaf/WP-screen%20options_original.png'
p547
F0.00010351829995646453
sS'http://qarrtsiluni.com/2010/06/21/andy-warhol-the-vancouver-art-gallery-2004/'
p548
F0.00010065946252718791
sS'http://www.blurb.com/about'
p549
F0.00012437497449076682
sS'http://www.zemanta.com/demo/'
p550
F0.0001633030693051858
sS'http://en.forums.wordpress.com/topic/about-calendar-widget-translated-in-albanian'
p551
F0.00010239718359998586
sS'http://jobs.wordpress.net/2013/01/08/need-a-custom-theme/'
p552
F0.00012584333662251724
sS'http://daryl.learnhouston.com/'
p553
F0.0001015776196510385
sS'http://lists.automattic.com/pipermail/wp-ui/'
p554
F0.00014271403427827445
sS'http://en.support.wordpress.com/media/media-add-new/'
p555
F0.00010245666799616132
sS'http://en.blog.wordpress.com/2013/'
p556
F0.00010497869135415742
sS'http://jobs.wordpress.net/category/wordpress-design-positions/'
p557
F0.0005556955766004229
sS'http://vip.wordpress.com/category/community/'
p558
F0.00012285054572412076
sS'http://support.zemanta.com/customer/portal/topics/273190-faq---using-zemanta/articles'
p559
F0.00010351829995646453
sS'https://www.etracker.com/index.php?id=164&L=1'
p560
F0.00016126306308844872
sS'https://www.etracker.com/index.php?id=164&L=0'
p561
F0.000246239909843731
sS'http://www.youtube.com/user/FastPencilTV'
p562
F0.00010351777914477935
sS'http://nickhamze.wordpress.com'
p563
F0.00010098010424129149
sS'http://directory.codepoet.com/browse/services/maintenance-updates/'
p564
F0.00011618233416990795
sS'http://www.microsoft.com/downloads/en/details.aspx?familyid=95E06CBE-4940-4218-B75D-B8856FCED535&amp;displaylang=en'
p565
F0.00010176416640776766
sS'http://en.support.wordpress.com/wufoo/'
p566
F0.00011370819336777741
sS'http://labs.adobe.com/technologies/spry/'
p567
F0.00010130507806323114
sS'http://jawa.lesehan.or.id/'
p568
F0.0001006537880291072
sS'http://vimeo.com'
p569
F0.00010419374273781762
sS'http://en.forums.wordpress.com/topic/jetpack-translate-on-mobile-push-notification-texts-are-wrong'
p570
F0.00010239718359998586
sS'http://jobs.wordpress.net/2013/01/05/wordpress-shopping-cart-integration/'
p571
F0.0001259412402777462
sS'http://dentedreality.com.au/'
p572
F0.00010144923364545968
sS'http://search.wordpress.com/'
p573
F0.00010110201261395904
sS'http://jobs.wordpress.net/2013/01/05/initial-implementation-assistance/'
p574
F0.0001292632545370777
sS'http://www.surveymonkey.com/jobs/Home_Jobs.aspx'
p575
F0.00011731990603396154
sS'http://codex.wordpress.org/WordPress_in_Your_Language#WordPress_MU_2'
p576
F0.0001006537880291072
sS'http://forum.wp-parsi.com/'
p577
F0.0001006537880291072
sS'http://en.support.wordpress.com/tag/categories/'
p578
F0.00010397275855245029
sS'http://slebog.net/blog/wordpress/'
p579
F0.00010484769586375045
sS'http://en.support.wordpress.com/tag/search/'
p580
F0.00010510336326456483
sS'http://en.support.wordpress.com/writing-helper/'
p581
F0.00011662320147472137
sS'http://www.vianegativa.us/2013/01/between-the-plea-and-the-imperative/'
p582
F0.00017218228140116485
sS'http://en.forums.wordpress.com/topic/slovak-validator'
p583
F0.00010239718359998586
sS'http://en.support.wordpress.com/posts/tags/'
p584
F0.00011566321766596298
sS'http://ko.wordpress.org/'
p585
F0.00010089155808329406
sS'http://www.blurb.com?redirect=true'
p586
F0.0001291806110918928
sS'http://danroundhill.com'
p587
F0.00010098010424129149
sS'http://www.vianegativa.us/category/natureecology/wildflowers/'
p588
F0.00017218228140116485
sS'http://en.support.wordpress.com/widgets/blog-stats-widget/'
p589
F0.0001465798459005516
sS'http://en.support.wordpress.com/custom-menu-widget/'
p590
F0.0001018937443184311
sS'http://en.support.wordpress.com/domains/transfer-domain-registration/'
p591
F0.00011645495202767223
sS'http://mkaz.com/'
p592
F0.00010542147180371772
sS'http://cl.wordpress.org'
p593
F0.0001006537880291072
sS'http://en.forums.wordpress.com/topic/change-recent-work-text-in-mixfolio-theme'
p594
F0.00010239718359998586
sS'http://svn.automattic.com/wordpress-i18n/'
p595
F0.00010225901947456036
sS'http://www.vianegativa.us/about/contact/'
p596
F0.00017055740771064527
sS'https://wordpress.com/#!/topics/'
p597
F0.00010022871867234076
sS'http://nikolay.bg/'
p598
F0.0001090124131109361
sS'http://designsimply.com'
p599
F0.00010098010424129149
sS'http://support.wordpress.com/posts/#writing-a-new-post'
p600
F0.0001018229282623195
sS'http://www.vianegativa.us/2008/12/compensation/'
p601
F0.00010094936030208629
sS'http://bryanvillarinphotography.com'
p602
F0.00010098010424129149
sS'http://en.wikipedia.org/wiki/GPL'
p603
F0.0001307053706663502
sS'http://wordpressfoundation.org/news/'
p604
F0.00014471650738561792
sS'http://gravatar.com/kellymaddern'
p605
F0.00010287286628744114
sS'http://en.support.wordpress.com/domains/dns-zone-records/'
p606
F0.00011616709031370121
sS'http://foodbloggeronadiet.com'
p607
F0.00010222771641684323
sS'http://www.vianegativa.us/2013/01/brave-cake/'
p608
F0.0001165703686756059
sS'http://en.support.wordpress.com/audio/spotify/'
p609
F0.0001070199541971169
sS'http://www.etracker.com/gb/kontakt.html'
p610
F0.00010239021990332323
sS'http://help.wufoo.com/articles/en_US/SurveyMonkeyArticleType/Integrations'
p611
F0.00015561569348535915
sS'http://money.cnn.com/magazines/fortune/'
p612
F0.00010112435163687178
sS'http://en.support.wordpress.com/posts/new-post-screen/'
p613
F0.00011104942822387025
sS'http://gravatar.com/tresorsdeluxe'
p614
F0.00010354206474523423
sS'https://www.google.com/adsense/'
p615
F0.00010090546087799629
sS'http://wordpressfoundation.org/2010/our-first-donation/'
p616
F0.00014900473303538337
sS'http://en.support.wordpress.com/tag/functions/'
p617
F0.00010090639472745637
sS'http://www.vianegativa.us/category/movies/'
p618
F0.00017218228140116485
sS'http://gravatar.com/felham'
p619
F0.00010384056439145699
sS'http://gravatar.com/chehimi'
p620
F0.0001031766221636497
sS'http://www.dailymotion.com/video/x8oma9_warp-whistle_shortfilms'
p621
F0.00010107260730533314
sS'http://wordpress.tv/2009/01/13/choosing-a-theme-for-your-blog/'
p622
F0.00010494915444379583
sS'http://en.support.wordpress.com/videos/dailymotion/'
p623
F0.00011396451741270691
sS'http://forums.blurb.com'
p624
F0.00012117913495354502
sS'http://wpde.org/download'
p625
F0.00011604933538418403
sS'http://en.support.wordpress.com/tag/videopress/'
p626
F0.00010340096134048657
sS'http://svn.automattic.com/wordpress-i18n/sv_SE/tags/3.1.2/messages/'
p627
F0.0001006537880291072
sS'http://en.forums.wordpress.com/topic/sticky-post-in-italian'
p628
F0.00010239718359998586
sS'http://www.blurb.com/lightroom'
p629
F0.00011716482218100732
sS'http://www.blurb.com/notebooks'
p630
F0.00011716482218100732
sS'http://gravatar.com/muku123'
p631
F0.00010384056439145699
sS'http://wpdevel.wordpress.com/'
p632
F0.0001076051886614727
sS'http://www.separatista.net/'
p633
F0.0001006537880291072
sS'http://creativecommons.org/licenses/by/3.0/us/'
p634
F0.00010402672091331228
sS'http://gravatar.com/kawagharji'
p635
F0.00010337315986230274
sS'http://buddypress.org/community/members/johnjamesjacoby/'
p636
F0.00010270851893040527
sS'http://developer.zemanta.com/docs/'
p637
F0.00018859606930974397
sS'http://en.support.wordpress.com/pages/#writing-a-new-page'
p638
F0.00010552800907026614
sS'http://help.wufoo.com/articles/en_US/SurveyMonkeyArticleType/Payment-Settings'
p639
F0.00015561569348535915
sS'http://www.vianegativa.us/2010/06/how-to-format-poetry-on-the-web-an-incomplete-guide/#comment-14280'
p640
F0.00010030841198269403
sS'http://www.vianegativa.us/2010/06/how-to-format-poetry-on-the-web-an-incomplete-guide/#comment-14281'
p641
F0.00010030841198269403
sS'http://www.vianegativa.us/2010/06/how-to-format-poetry-on-the-web-an-incomplete-guide/#comment-14282'
p642
F0.00010030841198269403
sS'http://www.vianegativa.us/2010/06/how-to-format-poetry-on-the-web-an-incomplete-guide/#comment-14283'
p643
F0.00010030841198269403
sS'http://www.vianegativa.us/2010/06/how-to-format-poetry-on-the-web-an-incomplete-guide/#comment-14284'
p644
F0.00010030841198269403
sS'https://www.etracker.com/index.php?id=52&L=1'
p645
F0.00016126306308844872
sS'http://www.vianegativa.us/2010/06/how-to-format-poetry-on-the-web-an-incomplete-guide/#comment-14286'
p646
F0.00010030841198269403
sS'http://www.vianegativa.us/2010/06/how-to-format-poetry-on-the-web-an-incomplete-guide/#comment-14287'
p647
F0.00010030841198269403
sS'http://www.vianegativa.us/2010/06/how-to-format-poetry-on-the-web-an-incomplete-guide/#comment-14288'
p648
F0.00010030841198269403
sS'http://www.vianegativa.us/2010/06/how-to-format-poetry-on-the-web-an-incomplete-guide/#comment-14289'
p649
F0.00010030841198269403
sS'http://directory.codepoet.com/browse/services/design/'
p650
F0.00011618233416990795
sS'http://en.support.wordpress.com/tag/logos/'
p651
F0.00010099194393681136
sS'http://en.support.wordpress.com/splitting-content/excerpts/'
p652
F0.00010324081443177454
sS'http://eu-by.org/wordpress-be'
p653
F0.0001006537880291072
sS'http://en.support.wordpress.com/trash/'
p654
F0.0001105042760100252
sS'http://andy.wordpress.com/'
p655
F0.00010098010424129149
sS'http://lists.automattic.com/pipermail/wp-xmlrpc/'
p656
F0.00014234152321929177
sS'http://jigsaw.w3.org/css-validator/'
p657
F0.00010648456226587726
sS'http://www.blurb.com/bookstore/c-arts-photography'
p658
F0.00011716482218100732
sS'http://help.wufoo.com/articles/en_US/SurveyMonkeyArticleType/Report-Builder'
p659
F0.00015561569348535915
sS'http://s.wordpress.org/about/images/desktops/wp-blue-1024x768.png'
p660
F0.0001008873366870441
sS'http://en.support.wordpress.com/settings/privacy-settings/'
p661
F0.00011112605803307304
sS'http://rosemattic.com/'
p662
F0.00010211471215418379
sS'http://gravatar.com/pttcha'
p663
F0.00010414388239659028
sS'http://en.support.wordpress.com/tag/webhooks/'
p664
F0.00010111602159926446
sS'http://jobs.wordpress.net/2012/12/25/casino-bingo-and-poker-guide/'
p665
F0.00011928510659558507
sS'http://evansolomon.wordpress.com'
p666
F0.00010098010424129149
sS'http://www.blurb.com/pricing'
p667
F0.00011716482218100732
sS'http://www.blurb.com/portfolio-book'
p668
F0.00012204341627014028
sS'http://en.support.wordpress.com/widgets/links-widget/'
p669
F0.00014383927741232493
sS'http://arashrecovery.com/2013/01/03/wiggle-wiggle-pinky-toe/'
p670
F0.00010807980985560178
sS'http://www.vianegativa.us/category/humor/the-fart-sutra/'
p671
F0.00017218228140116485
sS'http://en.support.wordpress.com/settings/media-settings/'
p672
F0.00011313668101562946
sS'http://en.support.wordpress.com/domains/change-name-servers/'
p673
F0.000116317460938289
sS'http://en.support.wordpress.com/tag/writing/'
p674
F0.0001057473121856524
sS'http://www.shadhinbangla.com/wordpress-bangla-language-pack-beta-3/2011/10/'
p675
F0.0001006537880291072
sS'http://gravatar.com/yopiepangkey'
p676
F0.00010257325010400587
sS'http://jobs.wordpress.net/2012/12/25/help-fixing-a-bug-since-update/'
p677
F0.00011941602094525361
sS'http://jobs.wordpress.net/2013/01/05/guide-me-in-building-a-child-theme-for-twenty-eleven-theme/'
p678
F0.00012926344469209252
sS'http://s.wordpress.org/about/images/desktops/wp-light-hi-640x960.png'
p679
F0.0001008873366870441
sS'http://codex.wpmania.gr/'
p680
F0.0001006537880291072
sS'http://www.nytimes.com/services/xml/rss/nyt/Opinion.xml'
p681
F0.00010106530475121257
sS'http://gravatar.com/neerajbhushan'
p682
F0.00010293555458674934
sS'http://s.wordpress.org/about/images/wpmini-blue.png'
p683
F0.0001008873366870441
sS'http://en.support.wordpress.com/facebook-integration/facebook-badge/'
p684
F0.00010402759156759364
sS'http://www.blurb.com/gift_cards'
p685
F0.00011716482218100732
sS'http://s.wordpress.org/about/images/logos/wordpress-logo-hoz-cmyk.pdf'
p686
F0.0001008873366870441
sS'http://sr.wordpress.org/releases'
p687
F0.0001006537880291072
sS'http://en.support.wordpress.com/posts/categories-vs-tags/'
p688
F0.00011303976451531436
sS'http://www2.lib.virginia.edu/etext/history.html'
p689
F0.00018060971988008917
sS'http://dribbble.com/jrtashjian'
p690
F0.00010244358401299475
sS'http://en.support.wordpress.com/audio/8tracks/'
p691
F0.00010563433184495706
sS'http://wordpress.tv/2012/08/26/sara-cannon-designing-for-the-modern-web/'
p692
F0.000103769299421365
sS'http://en.support.wordpress.com/topics/'
p693
F0.00011582799007130294
sS'http://en.blog.wordpress.com/2012/05/23/summer-food-blogs/'
p694
F0.00010022871867234076
sS'http://qarrtsiluni.com/category/words-of-power/'
p695
F0.00010157839163820041
sS'http://www.vianegativa.us/2013/01/christ-was-a-carpenter/'
p696
F0.00017218228140116485
sS'http://www.vianegativa.us/category/travel/'
p697
F0.00017218228140116485
sS'http://en.support.wordpress.com/trash/links-3/'
p698
F0.00010078931630996986
sS'http://en.support.wordpress.com/tag/translation/'
p699
F0.000101061125313721
sS'http://getspaz.com/'
p700
F0.00010114354963830483
sS'http://www.vianegativa.us/author/alison/'
p701
F0.00017218228140116485
sS'http://stuwest.org/about/bio/'
p702
F0.00010471820285328997
sS'http://www.vianegativa.us/2010/06/how-to-format-poetry-on-the-web-an-incomplete-guide/#comment-14292'
p703
F0.00010030841198269403
sS'http://en.support.wordpress.com/tag/html-editor/'
p704
F0.00010099518172691466
sS'http://www.vianegativa.us/category/food/beer/'
p705
F0.00017218228140116485
sS'http://wpdocs.sourceforge.jp/'
p706
F0.00011966215649290885
sS'http://www.laptoptips.ca/'
p707
F0.0001043182895056973
sS'http://help.wufoo.com/'
p708
F0.00015765012407340797
sS'http://www.timparkin.co.uk/2012/10/great-british-landscapes-a-new-photography-magazine/#comment-5129'
p709
F0.00010133213779938133
sS'http://www.timparkin.co.uk/2012/10/great-british-landscapes-a-new-photography-magazine/#comment-5128'
p710
F0.00010133213779938133
sS'http://www.timparkin.co.uk/2012/10/great-british-landscapes-a-new-photography-magazine/#comment-5125'
p711
F0.00010133213779938133
sS'http://www.timparkin.co.uk/2012/10/great-british-landscapes-a-new-photography-magazine/#comment-5124'
p712
F0.00010133213779938133
sS'http://www.timparkin.co.uk/2012/10/great-british-landscapes-a-new-photography-magazine/#comment-5127'
p713
F0.00010133213779938133
sS'http://www.vianegativa.us/author/marcia/'
p714
F0.00017218228140116485
sS'http://www.timparkin.co.uk/2012/10/great-british-landscapes-a-new-photography-magazine/#comment-5121'
p715
F0.00010133213779938133
sS'http://www.timparkin.co.uk/2012/10/great-british-landscapes-a-new-photography-magazine/#comment-5120'
p716
F0.00010133213779938133
sS'http://www.timparkin.co.uk/2012/10/great-british-landscapes-a-new-photography-magazine/#comment-5123'
p717
F0.00010133213779938133
sS'http://www.timparkin.co.uk/2012/10/great-british-landscapes-a-new-photography-magazine/#comment-5122'
p718
F0.00010133213779938133
sS'http://jobs.wordpress.net/category/general-positions/'
p719
F0.0005556955766004229
sS'http://en.support.wordpress.com/settings/discussion-settings/comments-2/'
p720
F0.00010162913630367059
sS'http://www.google.ca/ads/publisher/#utm_source=ww-en-et-storefront_adsense&amp;utm_campaign=en&amp;utm_medium=et&amp;subid=storefront_adsense'
p721
F0.00010576602634891684
sS'http://en.support.wordpress.com/videos/flickr-video/'
p722
F0.00011464276460434524
sS'http://www.vianegativa.us/category/stories/'
p723
F0.00017218228140116485
sS'http://www.educreations.com/faq/#embed'
p724
F0.00010116056900082308
sS'http://en.support.wordpress.com/tag/icons/'
p725
F0.0001017791691480145
sS'http://fautrever.com/'
p726
F0.00010189602355419256
sS'http://gravatar.com/qiqiba'
p727
F0.00010337315986230274
sS'http://help.wufoo.com/articles/en_US/SurveyMonkeyArticleType/Report-Manager'
p728
F0.00015561569348535915
sS'http://kristastevens.com'
p729
F0.00010192827423422439
sS'http://www.vianegativa.us/category/photos/'
p730
F0.00017218228140116485
sS'http://writingthroughthefog.com/2012/03/18/online-mourning-and-the-unexpected-refuge-of-facebook/'
p731
F0.0001022785803927496
sS'http://en.wikipedia.org/wiki/Hacker_%28programmer_subculture%29'
p732
F0.00012622517075260717
sS'http://ryanmarkel.com'
p733
F0.00010098010424129149
sS'http://gravatar.com/thebigark5'
p734
F0.00010247336001044078
sS'http://www.zemantamedia.com/'
p735
F0.00019048396844096343
sS'http://en.support.wordpress.com/tag/ratings/'
p736
F0.00010113832901412426
sS'http://www.blurb.com/bookstore/pbn'
p737
F0.00011716482218100732
sS'http://prefs.zemanta.com/dash/login'
p738
F0.00011244243199721676
sS'http://t.co/1gIywYwu'
p739
F0.00010073945302369042
sS'http://3rdculturechildren.com/2013/01/11/weekly-writing-challenge-map-it-out/'
p740
F0.00010552967523702676
sS'http://dailypost.wordpress.com/2011/08/29/how-to-write-better-titles-for-blog-posts/'
p741
F0.00010069326907678689
sS'http://wordpress.com/read/'
p742
F0.00010090235567271169
sS'http://www.sirw00t.com/'
p743
F0.00010183203908818382
sS'http://jobs.wordpress.net/2012/12/29/wordpress-expert-7/'
p744
F0.00011941275892768223
sS'http://help.getspaz.com'
p745
F0.00010451198290040419
sS'http://support.google.com/adsense?hl=en&amp;utm_source=ww-en-et-storefront_adsense&amp;utm_campaign=en&amp;utm_medium=et'
p746
F0.00010576602634891684
sS'http://en.support.wordpress.com/widgets/rss-widget/'
p747
F0.0001451454674000378
sS'http://gravatar.com/commandperformanceleadership'
p748
F0.00010297471096560718
sS'http://boren.nu/'
p749
F0.00010199938310742749
sS'http://www.etracker.de/lnkcnt.php?et=V23Jbb&amp;url=http://www.wirspeichernnicht.de/&amp;lnkname=Wir_speichern_nicht_Initiative'
p750
F0.00010179083570815765
sS'http://en.support.files.wordpress.com/2012/07/my-community-form.jpg'
p751
F0.00010116290360935399
sS'http://www.vianegativa.us/author/bruce/'
p752
F0.00017218228140116485
sS'http://www.blurb.com/returns'
p753
F0.00011716482218100732
sS'http://www.vianegativa.us/category/uncategorized/'
p754
F0.00017218228140116485
sS'http://fr.wordpress.org/'
p755
F0.0001006537880291072
sS'http://en.blog.wordpress.com/tag/photoblogging/'
p756
F0.00010047067001517815
sS'http://en.blog.wordpress.com/tag/creative-commons/'
p757
F0.00010022871867234076
sS'http://uz.wordpress.org/'
p758
F0.0001006537880291072
sS'http://directory.codepoet.com/browse/regions/middle-east-and-north-africa/'
p759
F0.00010313193516698812
sS'http://www.flickr.com/photos/jrtashjian/6951903980/'
p760
F0.00010098010424129149
sS'http://www.blurb.com/bookstore/category/c-wedding'
p761
F0.00011716482218100732
sS'http://gunky.org'
p762
F0.00010098010424129149
sS'http://en.support.wordpress.com/domains/domain-management/'
p763
F0.00011644751176746816
sS'http://en.support.wordpress.com/tag/space/'
p764
F0.00010076214967021511
sS"http://digg.com/submit?url='+document.URL+'&amp;title='+document.title+'"
p765
F0.00010332918516927827
sS'http://www.wufoo.com/faq/'
p766
F0.00015765012407340797
sS'http://www.vianegativa.us/2010/06/how-to-format-poetry-on-the-web-an-incomplete-guide/#comment-14293'
p767
F0.00010030841198269403
sS'http://www.blurb.fr'
p768
F0.00011836564356077297
sS'http://www.vianegativa.us/2010/06/how-to-format-poetry-on-the-web-an-incomplete-guide/#comment-14290'
p769
F0.00010030841198269403
sS'http://svn.automattic.com/wordpress-i18n/eo/'
p770
F0.0001006537880291072
sS'http://www.vianegativa.us/2010/06/how-to-format-poetry-on-the-web-an-incomplete-guide/#comment-14296'
p771
F0.00010030841198269403
sS'http://www.vianegativa.us/2010/06/how-to-format-poetry-on-the-web-an-incomplete-guide/#comment-14295'
p772
F0.00010030841198269403
sS'http://en.support.wordpress.com/tag/editor/'
p773
F0.00010310970561175985
sS'http://www.vianegativa.us/2010/06/how-to-format-poetry-on-the-web-an-incomplete-guide/#comment-14299'
p774
F0.00010030841198269403
sS'http://www.vianegativa.us/2010/06/how-to-format-poetry-on-the-web-an-incomplete-guide/#comment-14298'
p775
F0.00010030841198269403
sS'http://blog.standortanalyse.biz'
p776
F0.0001018533813422674
sS'http://www.buayacorp.com/'
p777
F0.00010187571492197741
sS'http://www.educreations.com/'
p778
F0.00010116056900082308
sS'http://en.support.wordpress.com/widgets/top-clicks-widget/'
p779
F0.00014513069920813842
sS'https://www.etracker.com/de/etracker-produkte-echtzeit-web-controlling-visitor-voice/campaign-control.html'
p780
F0.00010122584424359735
sS'http://en.support.wordpress.com/tag/content-management-system/'
p781
F0.00010090546087799629
sS'http://s.wordpress.org/about/images/desktops/wp-blue-2880x1800.png'
p782
F0.0001008873366870441
sS'http://en.wikipedia.org/wiki/Mrs_Eaves'
p783
F0.00012610923129710992
sS'http://en.support.wordpress.com/widgets/goodreads-widget/goodreads_author_url/'
p784
F0.00010113235375533204
sS'http://twitter.com/WordPressVIP'
p785
F0.00012285054572412076
sS'http://gravatar.com/newmexicomtngirl'
p786
F0.00010212878916908209
sS'http://www.vianegativa.us/category/videos/'
p787
F0.00017218228140116485
sS'http://support.zemanta.com/customer/portal/articles/586896-where-do-you-get-images-from-'
p788
F0.00010351829995646453
sS'http://s.wordpress.org/about/images/desktops/wp-blue-1440x900.png'
p789
F0.0001008873366870441
sS'http://theme.wordpress.com/themes/features/music/'
p790
F0.00010087874253140002
sS'http://en.support.wordpress.com/links/#removing-links'
p791
F0.00010072982770592996
sS'http://jobs.wordpress.net/2012/12/25/seeking-partners-and-leads-wp-development-projects/'
p792
F0.0001288528905631661
sS'http://translate.wordpress.com/projects/wpcom'
p793
F0.00010465468685206648
sS'http://en.blog.wordpress.com/category/search/'
p794
F0.00010290081040614086
sS'http://svn.automattic.com/wordpress-i18n/sv_SE/tags/3.3/messages/'
p795
F0.0001006537880291072
sS'http://jobs.wordpress.net/2013/01/08/website-conversion-to-wordpress/'
p796
F0.00013109871680061117
sS'http://en.support.wordpress.com/widgets/bandpage-widget/'
p797
F0.00014518578883935708
sS'http://www.vianegativa.us/category/epigrams-and-conundrums/'
p798
F0.00017218228140116485
sS'http://membership.thinkvitamin.com/?aid=102&utm_source=aff'
p799
F0.00010183203908818382
sS'http://www.belmaral.biz/index-wp.html'
p800
F0.0001006537880291072
sS'http://en.support.wordpress.com/widgets/meta-widget/'
p801
F0.00014642199395565087
sS'http://en.blog.wordpress.com/2010/11/17/custom-css-styles/'
p802
F0.00010088553694859601
sS'http://twitter.com/intent/user?screen_name=themattharris'
p803
F0.00010152311539669987
sS'http://vip.wordpress.com/partners/#partners-technology'
p804
F0.00010515984382057929
sS'https://twitter.com/wordpressdotcom/status/204557548249026561%5D'
p805
F0.00010198925995546312
sS'http://www.vianegativa.us/category/travel/west-virginia/'
p806
F0.00017218228140116485
sS'http://en.forums.wordpress.com/topic/translating-jetpack'
p807
F0.00010239718359998586
sS'http://en.forums.wordpress.com/topic/useful-information'
p808
F0.00010239718359998586
sS'http://www.wufoo.com/gallery/'
p809
F0.00015867560941047322
sS'http://support.zemanta.com/customer/portal/articles/674795-where-do-related-articles-come-from-'
p810
F0.00010351829995646453
sS'http://www.blurb.com/make-books'
p811
F0.00011830680412119165
sS'http://gravatar.com/nancymireault'
p812
F0.00010404609451139749
sS'http://en.support.wordpress.com/writing-and-formatting-poetry/'
p813
F0.0001219439396792974
sS'http://urbangiraffe.com'
p814
F0.00010098010424129149
sS'http://en.support.wordpress.com/tag/commenting/'
p815
F0.00010108828793019145
sS'http://en.support.wordpress.com/tag/rss/'
p816
F0.00010433088927349777
sS'http://en.support.wordpress.com/tag/book/'
p817
F0.00010097784015488253
sS'http://lists.automattic.com/pipermail/wp-edu/'
p818
F0.00014159588839330055
sS'http://directory.codepoet.com/'
p819
F0.00010178789262130773
sS'http://gravatar.com/beeezzzzzz'
p820
F0.00010414388239659028
sS'http://toni.org/bio/'
p821
F0.00010098010424129149
sS'http://code.google.com/p/spaz/issues/list'
p822
F0.00010130507806323114
sS'http://en.wordpress.com/languages/'
p823
F0.00010109014587736604
sS'http://www.blurb.com/personal-books'
p824
F0.00014025894614839638
sS'http://help.wufoo.com/articles/en_US/SurveyMonkeyArticleType/Code-Manager'
p825
F0.00015561569348535915
sS'http://azerblog.com/wordpress/dil/azb01/wp-content/languages/azb_AZB.mo'
p826
F0.0001006537880291072
sS'http://danielbachhuber.com/'
p827
F0.00010230010560400359
sS'http://larrygoodell.wordpress.com/'
p828
F0.00010202800178943514
sS'http://gravatar.wordpress.com/'
p829
F0.00012104436911264884
sS'http://en.blog.wordpress.com/tag/photo-blogging-101/'
p830
F0.00010047067001517815
sS'http://blurb.custhelp.com/cgi-bin/blurb.cfg/php/enduser/home_std_alp.php#cs'
p831
F0.00011716482218100732
sS'http://www.timparkin.co.uk/2012/10/great-british-landscapes-a-new-photography-magazine/#comment-5150'
p832
F0.00010133213779938133
sS'http://wordpress.org/extend/plugins/gravatar-widget/'
p833
F0.0001040590316501573
sS'http://it.blurb.com?redirect=true'
p834
F0.0001291806110918928
sS'http://ar.wordpress.org/'
p835
F0.0001006537880291072
sS'http://jobs.wordpress.net/2012/12/25/a-few-fixes-and-upgrades/'
p836
F0.00011929397112485105
sS'http://en.support.wordpress.com/tag/chapters/'
p837
F0.00010097784015488253
sS'http://wordpressfoundation.org/'
p838
F0.00020299431123834948
sS'http://svn.automattic.com/wordpress-i18n/sv_SE/tags/'
p839
F0.00010295444604124275
sS'http://www.twitter.com/crushgear'
p840
F0.00010098010424129149
sS'http://en.support.wordpress.com/splitting-content/page-jumps/'
p841
F0.00010464722911911753
sS'http://tw.wordpress.org/'
p842
F0.0001006537880291072
sS'http://wppolyglots.wordpress.com/'
p843
F0.000102819295242861
sS'http://translate.sourceforge.net/wiki/decathlon/quickstart'
p844
F0.00010089155808329406
sS'http://larrygoodell.blogspot.com/'
p845
F0.00010080610955240978
sS'http://wordpress.tv/tag/themes/'
p846
F0.00010618468977253978
sS'http://www.blurb.com/bookstore/popular'
p847
F0.00011716482218100732
sS'http://support.wordpress.com/domain-mapping/map-existing-domain/'
p848
F0.00010615093338122118
sS'http://en.support.wordpress.com/tag/cloud/'
p849
F0.00010115371602900022
sS'http://s.wordpress.org/about/images/desktops/wp-dark-lo-2560x1440.png'
p850
F0.0001008873366870441
sS'https://www.etracker.com/de/etracker-produkte-echtzeit-web-controlling-visitor-voice/etracker-page-feedback/page-feedback-basic.html'
p851
F0.00010122584424359735
sS'http://comox.textdrive.com/pipermail/cvs/'
p852
F0.00010130172710510673
sS'http://codex.wordpress.org/Mailing_Lists'
p853
F0.00010220408277781844
sS'http://svn.automattic.com/wordpress-i18n/sv_SE/tags/3.1/messages/'
p854
F0.0001006537880291072
sS'http://en.support.wordpress.com/tag/block/'
p855
F0.00010076214967021511
sS'http://twitter.com/intent/user?screen_name=kurrik'
p856
F0.00010344132002176839
sS'http://jobs.wordpress.net/2013/01/05/custom-wordpress-theme-3/'
p857
F0.00013109176815357833
sS'http://ja.wordpress.org/releases/'
p858
F0.0001006537880291072
sS'http://svn.automattic.com/wordpress-i18n/ms_MY/branches/2.3/messages/'
p859
F0.0001006537880291072
sS'http://tinymce.moxiecode.com/'
p860
F0.00010206943815507844
sS'http://codex.wordthai.com/WordPress+in+Your+Language'
p861
F0.0001006537880291072
sS'http://www.blurb.com/cookbooks'
p862
F0.00012204341627014028
sS'http://en.support.wordpress.com/visual-editor/#keyboard-shortcuts'
p863
F0.00010072982770592996
sS'http://gravatar.com/hellodesign'
p864
F0.00010404609451139749
sS'http://wordpress.tv/flavor/wordpresscom/'
p865
F0.00010626739984053207
sS'http://graysonqueen.wordpress.com/2013/01/09/brown/'
p866
F0.00010573220516010165
sS'http://ja.wordpress.org/install-ja/'
p867
F0.0001026983546058219
sS'http://vimeo.com/help/faq/privacy'
p868
F0.00010106958246280049
sS'http://digitalize.ca'
p869
F0.00010257812774948133
sS'http://svn.automattic.com/wordpress-i18n/ja/tags/'
p870
F0.0001006537880291072
sS'http://www.whenihavetime.com'
p871
F0.00010098010424129149
sS'http://www.degraeve.com/reference/specialcharacters.php'
p872
F0.00010122867264310609
sS'http://support.twitter.com/forums/26810/entries/78525'
p873
F0.0001220722446600837
sS'http://jobs.wordpress.net/2013/01/05/theme-update-to-3-5/'
p874
F0.0001258462444701168
sS'https://dev.twitter.com/discussions/10644'
p875
F0.00010455071742188581
sS'http://support.wordpress.com/widgets/pages-widget/'
p876
F0.00010211314708670882
sS'http://www.vianegativa.us/category/natureecology/'
p877
F0.00017218228140116485
sS'http://en.support.wordpress.com/widgets/goodreads-widget/widget-2/'
p878
F0.00010113235375533204
sS'http://s.wordpress.org/about/images/desktops/wp-dkblue-blue-2560x1440.png'
p879
F0.0001008873366870441
sS'http://vip.wordpress.com/category/publisher-spotlight/'
p880
F0.00012285054572412076
sS'http://gravatar.com/huetri'
p881
F0.0001035908448528976
sS'http://en.support.wordpress.com/tag/subscribe/'
p882
F0.00010118003096098874
sS'http://gravatar.com/jazfagan'
p883
F0.00010288378406847586
sS'http://www.vianegativa.us/category/natureecology/birds/'
p884
F0.00017218228140116485
sS'http://jobs.wordpress.net/category/wordpress-upgrade-jobs/feed/'
p885
F0.0005152443051093133
sS'http://www.vianegativa.us/category/riffs/'
p886
F0.00017218228140116485
sS'http://directory.codepoet.com/browse/services/performance-scaling/'
p887
F0.00011618233416990795
sS'http://en.support.wordpress.com/settings/writing-settings/'
p888
F0.00011745757219867041
sS'https://www.etracker.com/en/'
p889
F0.00016126306308844872
sS'http://www.vianegativa.us/2013/01/the-map-makers-colors/'
p890
F0.00017218228140116485
sS'http://gravatar.com/calicodiary'
p891
F0.0001034256897224646
sS'http://www.vianegativa.us/category/guest-writers/'
p892
F0.00017218228140116485
sS'http://en.forums.wordpress.com/topic/spanish-translation-request-for-enter-text-here-and-connect'
p893
F0.00010239718359998586
sS'http://wp-support.se/forum/tracker.php'
p894
F0.0001006537880291072
sS'http://jobs.wordpress.net/2013/01/08/seeking-experienced-wordpress-developerdesigner/'
p895
F0.00012600295764230902
sS'http://thedisorderofthings.com/2013/01/09/american-vignettes-i-totalitarian-undercurrents/'
p896
F0.00010544279301474061
sS'http://en.support.wordpress.com/tag/poetry/'
p897
F0.00010076214967021511
sS'http://gravatar.com/organiclassie'
p898
F0.00010361526182187403
sS'http://www.blurb.com/brochure'
p899
F0.00011716482218100732
sS'http://www.notfall-plan.com/notfallplan-pages/stick-bestellen/bestellung-privat.php'
p900
F0.00011563108848497552
sS'http://s.wordpress.org/about/images/desktops/wp-orange-1440x900.png'
p901
F0.0001008873366870441
sS'http://ocaoimh.ie'
p902
F0.00010098010424129149
sS'http://wordpressfoundation.org/wp/wp-login.php'
p903
F0.00014471650738561792
sS'http://www.publishersweekly.com/pw/by-topic/industry-news/manufacturing/article/45975-bookmobile-creates-poetry-app.html'
p904
F0.00010030841198269403
sS'http://justinshreve.com'
p905
F0.00010098010424129149
sS'http://www.amazon.com/rss/tag/sci-fi/popular/'
p906
F0.00010106530475121257
sS'http://dailypost.wordpress.com/2013/01/10/build-a-better-blogroll/'
p907
F0.0006166418767876974
sS'http://www.blurb.com/word-addin'
p908
F0.00011716482218100732
sS'http://www.gregorycornelius.com/music.html'
p909
F0.00010098010424129149
sS'http://en.support.wordpress.com/tag/html/'
p910
F0.00010491615365923853
sS'http://www.blurb.com/make'
p911
F0.00016034814557462607
sS'http://en.support.wordpress.com/widgets/image-widget/'
p912
F0.00014633908571537503
sS'http://support.wordpress.com/domain-mapping/map-subdomain/'
p913
F0.00010405357052462967
sS'http://learn.wordpress.com/'
p914
F0.00011911881711133719
sS'http://en.support.wordpress.com/copy-a-post/'
p915
F0.0001013521531492477
sS'http://twitter.com/intent/user?screen_name=jasoncosta'
p916
F0.00010283626932370516
sS'http://www.zemanta.com/download/g/'
p917
F0.00014152862342205116
sS'http://en.support.wordpress.com/tag/status/'
p918
F0.00010099033391412955
sS'http://en-gb.wordpress.org/'
p919
F0.0001006537880291072
sS'http://www.msadventuresinitaly.com/blog'
p920
F0.00010286564288438266
sS'http://support.wordpress.com/code/#html-tags'
p921
F0.00010281810998923418
sS'http://romanticrobot.net'
p922
F0.00010098010424129149
sS'http://en.support.wordpress.com/videopress/'
p923
F0.0001308169392724636
sS'http://apiwiki.twitter.com'
p924
F0.00010294707311114991
sS'http://en.forums.wordpress.com/topic/hidden-strings-in-glotpress-and-translating-using-other-tools-eg-poedit'
p925
F0.00010239718359998586
sS'http://gravatar.com/baba070'
p926
F0.00010384056439145699
sS'http://www.bakershours.com/2009/02/my-wordpress-tattoo/'
p927
F0.00010212614619749009
sS'http://www.vianegativa.us/2013/01/dis-orient/'
p928
F0.00017218228140116485
sS'http://www.vianegativa.us/category/art/'
p929
F0.00017218228140116485
sS'http://en.forums.wordpress.com/topic/can-trao-doi-link-lien-ket'
p930
F0.00010239718359998586
sS'http://www.vianegativa.us/2010/06/how-to-format-poetry-on-the-web-an-incomplete-guide/#comment-14294'
p931
F0.00010030841198269403
sS'http://en.support.wordpress.com/wordpress-com-home-page/'
p932
F0.0001101861003183301
sS'http://www.notfall-plan.com/?vp=fe-consult-gmbh'
p933
F0.00010425270050254238
sS'http://en.support.wordpress.com/widgets/top-rated-widget/'
p934
F0.00014655755251056775
sS'http://www.etracker.com/gb/etracker-produkte-echtzeit-web-controlling-visitor-voice.html'
p935
F0.00010239021990332323
sS'http://codex.wordpress.org/ru:Main_Page'
p936
F0.00010322901493761927
sS'http://theme.wordpress.com/themes/subjects/business/'
p937
F0.00010858142148107397
sS'http://wordpress.com/#!/read/'
p938
F0.00010479132563676508
sS'http://translate.os.cs.teiath.gr/el/index.html'
p939
F0.0001006537880291072
sS'http://gravatar.com/pukatrips'
p940
F0.00010297471096560718
sS'http://en.support.wordpress.com/videos/youtube/'
p941
F0.00011881051743835209
sS'http://gravatar.com/shared2'
p942
F0.00010374700404924867
sS'http://gravatar.com/bulgarskamuzikabg'
p943
F0.00010328913756408619
sS'http://en.wikipedia.org/wiki/Free_software'
p944
F0.00012622517075260717
sS'http://s.wordpress.org/about/images/desktops/wp-orange-1024x768.png'
p945
F0.0001008873366870441
sS'http://www.etracker.com/fileadmin/pdf/en_etracker_products_04_2012.pdf'
p946
F0.00010066595264978218
sS'http://www.theatlantic.com/technology/archive/2011/12/facebook-timeline-and-the-eternal-sunshine-of-the-spotless-mind/250269/'
p947
F0.00010098010424129149
sS'http://support.wordpress.com/code'
p948
F0.00010615093338122118
sS'http://www.vianegativa.us/2010/06/how-to-format-poetry-on-the-web-an-incomplete-guide/#comment-14244'
p949
F0.00010030841198269403
sS'http://www.vianegativa.us/2010/06/how-to-format-poetry-on-the-web-an-incomplete-guide/#comment-14245'
p950
F0.00010030841198269403
sS'http://www.vianegativa.us/2010/06/how-to-format-poetry-on-the-web-an-incomplete-guide/#comment-14246'
p951
F0.00010030841198269403
sS'http://www.vianegativa.us/2010/06/how-to-format-poetry-on-the-web-an-incomplete-guide/#comment-14247'
p952
F0.00010030841198269403
sS'http://help.wufoo.com/articles/en_US/SurveyMonkeyArticleType/Terminology'
p953
F0.00015561569348535915
sS'http://www.vianegativa.us/category/travel/pennsylvania/'
p954
F0.00017218228140116485
sS'http://www.vianegativa.us/2010/06/how-to-format-poetry-on-the-web-an-incomplete-guide/#comment-14248'
p955
F0.00010030841198269403
sS'http://www.vianegativa.us/2010/06/how-to-format-poetry-on-the-web-an-incomplete-guide/#comment-14249'
p956
F0.00010030841198269403
sS'http://www.ifdesign.de/index_e'
p957
F0.00010021722793104838
sS'https://www.google.com/adsense/support/as/bin/answer.py?answer=167653&amp;hl=en&amp;utm_source=ww-en-et-storefront_adsense&amp;utm_campaign=en&amp;utm_medium=et'
p958
F0.00010576602634891684
sS'http://gravatar.com/evehowardceramics'
p959
F0.00010341058275820858
sS'http://creativecommons.org'
p960
F0.00010122850639006634
sS'http://www.vianegativa.us/category/poetics/napomo-cards/'
p961
F0.00017218228140116485
sS'http://blog.ericavarlese.com'
p962
F0.00010258934893049588
sS'http://en.support.wordpress.com/tag/upload/'
p963
F0.0001052170367391794
sS'http://www.vianegativa.us/2013/01/palpable-beef/'
p964
F0.00010916247204022122
sS'http://en.support.wordpress.com/widgets/'
p965
F0.00015118646207611556
sS'http://jobs.wordpress.net/2012/12/25/part-time-wordpress-developer-4/'
p966
F0.00011915966509638689
sS'http://en.support.wordpress.com/tag/widget/'
p967
F0.00010669621788812239
sS'http://jobs.wordpress.net/2013/01/05/wordpress-programmer-36/'
p968
F0.0001195474547556447
sS'http://directory.codepoet.com/about/'
p969
F0.0001870644597097039
sS'http://s.wordpress.org/about/images/logos/wordpress-logo-textonly-cmyk.pdf'
p970
F0.0001008873366870441
sS'http://en.support.wordpress.com/tag/tweet-button/'
p971
F0.00010118712626572897
sS'http://sr.wordpress.org/docs/upgrade/'
p972
F0.00010707806237545061
sS'http://www.ethitter.com'
p973
F0.00010098010424129149
sS'http://en.support.wordpress.com/settings/general-settings/'
p974
F0.00011262737206116583
sS'http://en.support.wordpress.com/write-a-book/'
p975
F0.00011856309504783638
sS'http://gravatar.com/kotev1000'
p976
F0.00010288378406847586
sS'http://blog.ftwr.co.uk/'
p977
F0.00010309487082239637
sS'http://www.timparkin.co.uk/2012/10/great-british-landscapes-a-new-photography-magazine/#comment-5149'
p978
F0.00010133213779938133
sS'http://www.timparkin.co.uk/2012/10/great-british-landscapes-a-new-photography-magazine/#comment-5148'
p979
F0.00010133213779938133
sS'http://jobs.wordpress.net/2012/12/25/wordpress-plugin-modifications-needed/'
p980
F0.00011914537200319505
sS'http://jobs.wordpress.net/'
p981
F0.00020144629089561473
sS'http://www.timparkin.co.uk/2012/10/great-british-landscapes-a-new-photography-magazine/#comment-5147'
p982
F0.00010133213779938133
sS'http://www.timparkin.co.uk/2012/10/great-british-landscapes-a-new-photography-magazine/#comment-5146'
p983
F0.00010133213779938133
sS'http://en.support.wordpress.com/tag/bandpage/'
p984
F0.00010113873014088568
sS'http://yoavfarhi.com'
p985
F0.00010098010424129149
sS'http://www.traceycaponephotography.net/zen/chicago-photography-urban-landscape/'
p986
F0.00010022871867234076
sS'http://jobs.wordpress.net/2012/12/25/new-website-for-ngo/'
p987
F0.00012917871138650691
sS'http://en.blog.wordpress.com/2009/04/15/ted-ideas-worth-spreading/'
p988
F0.00010058102357106363
sS'http://s.wordpress.org/about/images/desktops/wp-light-hi-2048x1536.png'
p989
F0.0001008873366870441
sS'http://lists.automattic.com/mailman/listinfo/wp-forums'
p990
F0.0001205972987549991
sS'http://gravatar.com/eternallove55610'
p991
F0.00010309896049915509
sS'http://s.wordpress.org/about/images/desktops/wp-dark-lo-2880x1800.png'
p992
F0.0001008873366870441
sS'http://www.ibrahimrustamov.com/files/tajik_wordpress.po.html'
p993
F0.0001006537880291072
sS'http://vip.wordpress.com/clients/'
p994
F0.0001585225051174889
sS'http://gravatar.com/ourhilife'
p995
F0.00010341058275820858
sS'http://wordpress.org/support/'
p996
F0.00015666453946719494
sS'http://www.vianegativa.us/category/podcast/'
p997
F0.00017218228140116485
sS'http://www.vianegativa.us/category/philosophyreligion/'
p998
F0.00017218228140116485
sS'http://sugo.wphu.org'
p999
F0.00010621727100242699
sS'http://wordpressfoundation.org/2011/2010-year-in-review/'
p1000
F0.00014900473303538337
sS'http://www.viper007bond.com/wordpress-plugins/'
p1001
F0.00010193095138669354
sS'http://gravatar.com/travellingartist'
p1002
F0.00010322329111236865
sS'http://techinfovn.com/'
p1003
F0.0001006537880291072
sS'http://wp.me/pf2B5-2Ng'
p1004
F0.00010320929758124409
sS'http://wordpress.org/extend/plugins/'
p1005
F0.0001377651547486373
sS'http://th.wordpress.org'
p1006
F0.000102764186697823
sS'http://s.wordpress.org/about/images/desktops/wp-dkblue-orange-640x960.png'
p1007
F0.0001008873366870441
sS'http://en.support.wordpress.com/twitter-api/'
p1008
F0.00010720777207070432
sS'https://dev.twitter.com/discussions/cards/help'
p1009
F0.00010152311539669987
sS'http://cvillewinter.wordpress.com/2013/01/04/two-afternoons-in-gordon-avenue-library/'
p1010
F0.00010523755156832588
sS'http://en.support.wordpress.com/tag/privacy/'
p1011
F0.00010110201261395904
sS'http://en.support.wordpress.com/tag/counter/'
p1012
F0.0001030427629767468
sS'http://jobs.wordpress.net/2012/12/25/events-manager-shortcode-additions-tickercounter-for-em-output/'
p1013
F0.00011915405175714483
sS'http://gravatar.com/nayaton'
p1014
F0.00010337315986230274
sS'http://s.wordpress.org/about/images/desktops/wp-dkblue-orange-1024x768.png'
p1015
F0.0001008873366870441
sS'http://www.timparkin.co.uk/2012/10/great-british-landscapes-a-new-photography-magazine/#comment-6147'
p1016
F0.00010133213779938133
sS'http://support.wordpress.com/avatars/gravatars/'
p1017
F0.00010108591442077572
sS'http://vip.wordpress.com/category/themes/'
p1018
F0.00012285054572412076
sS'http://translate.wordpress.com/projects'
p1019
F0.00010375156686265801
sS'http://www.blurb.co.uk?redirect=true'
p1020
F0.0001291806110918928
sS'http://www.etracker.com/index.php?id=164'
p1021
F0.000246239909843731
sS'http://en.support.wordpress.com/tag/akismet/'
p1022
F0.00010114980815876729
sS'http://videopress.com'
p1023
F0.00010220249666446392
sS'http://wp-support.se/dokumentation/'
p1024
F0.00010211369827203668
sS'http://en.support.wordpress.com/domains/custom-dns/'
p1025
F0.00011619319014597547
sS'http://gravatar.com/pickyveggiemom'
p1026
F0.00010376900625707624
sS'https://www.etracker.com/de/kostenloser-support-per-telefon-und-email/broschueren.html#c48994'
p1027
F0.00010052928546021547
sS'http://support.wordpress.com/widgets/search-widget/'
p1028
F0.00010112448154539918
sS'http://barry.wordpress.com'
p1029
F0.0001014139607579282
sS'http://jobs.wordpress.net/2013/01/05/php-developer-design-css-wordpress-integrations/'
p1030
F0.00012620940999815114
sS'http://publisherblog.automattic.com/'
p1031
F0.00018798147366049485
sS'http://hanni.me/'
p1032
F0.0001019510667821315
sS'http://www.textpad.com/'
p1033
F0.0001006537880291072
sS'http://indo-european.info/wordpress/'
p1034
F0.00010190804083946266
sS'http://www.etracker.gb/produkte/'
p1035
F0.00010066595264978218
sS'http://wordpress.tv/2012/10/27/tammy-lister-express-yourself-with-buddypress-themes/'
p1036
F0.00010756714187182688
sS'http://gaptheoryband.com'
p1037
F0.00010380877070940341
sS'http://en.blog.wordpress.com/2008/04/14/search-wordpresscom/'
p1038
F0.00010053464464220848
sS'http://www.blurb.com/'
p1039
F0.00029687834957132456
sS'http://www.wpmania.gr'
p1040
F0.00010143404995182804
sS'http://afrikaans.wordpress.com/'
p1041
F0.00010294137412072342
sS'http://en.support.wordpress.com/tag/attributes/'
p1042
F0.00010106025222067651
sS'http://svn.automattic.com/wordpress-i18n/zh_HK/'
p1043
F0.00010281838562117391
sS'http://www.wp-portugal.com'
p1044
F0.00010263617961921525
sS'http://funkatron.com/spaziki/'
p1045
F0.00010130507806323114
sS'http://jobs.wordpress.net/category/wordpress-upgrade-jobs/'
p1046
F0.0005556955766004229
sS'http://en.support.wordpress.com/tag/twitter/'
p1047
F0.00010970809812187151
sS'http://codex.wordpress.org/he:%D7%A2%D7%9E%D7%95%D7%93_%D7%A8%D7%90%D7%A9%D7%99'
p1048
F0.00010110565688670973
sS'http://lists.automattic.com/pipermail/wp-docs/'
p1049
F0.00010130172710510673
sS'http://en.forums.wordpress.com/topic/misprint-in-search-bar'
p1050
F0.00010239718359998586
sS'http://gravatar.com/nuvoe'
p1051
F0.00010022871867234076
sS'http://support.wordpress.com/advertising/'
p1052
F0.00010615093338122118
sS'http://colinger.com'
p1053
F0.00010098010424129149
sS'http://en.support.wordpress.com/videos/youtube/#troubleshooting'
p1054
F0.0001010679597974626
sS'http://directory.codepoet.com/browse/regions/australia-and-oceania/'
p1055
F0.00010313193516698812
sS'http://www.vianegativa.us/author/teju/'
p1056
F0.00017218228140116485
sS"http://twitter.com/home?status=Currently reading '+document.URL+'"
p1057
F0.00010332918516927827
sS'http://www.blurb.com/business-solutions'
p1058
F0.00011716482218100732
sS'http://quocphongnd.wordpress.com/2012/05/22/21/'
p1059
F0.00010022871867234076
sS'http://en.forums.wordpress.com/bb-login.php'
p1060
F0.0001398618209483967
sS'http://gravatar.com/abracole'
p1061
F0.0001031766221636497
sS'http://accismus.com/'
p1062
F0.00010232203253693911
sS'http://www.vianegativa.us/2010/06/how-to-format-poetry-on-the-web-an-incomplete-guide/#comment-14257'
p1063
F0.00010030841198269403
sS'http://support.zemanta.com/customer/en/portal/articles/715550/rate?rating=1'
p1064
F0.00010351829995646453
sS'https://twitter.com/privacy/previous'
p1065
F0.00010241790509838737
sS'http://www.vianegativa.us/2010/06/how-to-format-poetry-on-the-web-an-incomplete-guide/#comment-14254'
p1066
F0.00010030841198269403
sS'http://www.vianegativa.us/2010/06/how-to-format-poetry-on-the-web-an-incomplete-guide/#comment-14253'
p1067
F0.00010030841198269403
sS'http://www.vianegativa.us/2010/06/how-to-format-poetry-on-the-web-an-incomplete-guide/#comment-14252'
p1068
F0.00010030841198269403
sS'http://translate.wordpress.org/projects/wp'
p1069
F0.00010556166712429431
sS'http://www.vianegativa.us/2010/06/how-to-format-poetry-on-the-web-an-incomplete-guide/#comment-14250'
p1070
F0.00010030841198269403
sS'http://abrightertomorrow13.wordpress.com/2012/05/22/40/'
p1071
F0.00010022871867234076
sS'http://gravatar.com/rcnorman'
p1072
F0.0001031766221636497
sS'http://en.forums.wordpress.com/topic/requesting-deploy-of-danish-gravatar-translation'
p1073
F0.00010239718359998586
sS'http://www.vianegativa.us/2010/06/how-to-format-poetry-on-the-web-an-incomplete-guide/#comment-14259'
p1074
F0.00010030841198269403
sS'http://www.vianegativa.us/2010/06/how-to-format-poetry-on-the-web-an-incomplete-guide/#comment-14258'
p1075
F0.00010030841198269403
sS'http://bob.peeechdee.com/'
p1076
F0.00010183203908818382
sS'http://lists.automattic.com/pipermail/wp-testers/'
p1077
F0.00013331371163116527
sS'http://www.notfall-plan.com/notfallplan-pages/wissenswertes/notfallplan-privat.php'
p1078
F0.0001239878715048999
sS'http://madrad2002.wordpress.com/'
p1079
F0.00010088247001206422
sS'https://signup.wordpress.com/signup/?theme=Anthem&amp;source=musicwpcom'
p1080
F0.00010380877070940341
sS'http://gravatar.com/foodandtools'
p1081
F0.00010297471096560718
sS'http://www.ericmeyeroncss.com/'
p1082
F0.00010374016964001587
sS'http://translate.google.com/toolkit'
p1083
F0.000101061125313721
sS'http://theme.wordpress.com/themes/subjects/photography/'
p1084
F0.00011736233330363725
sS'http://en.support.wordpress.com/trash/emptytrash-2/'
p1085
F0.00010078931630996986
sS'http://fortheearthwasemptyofform.bandcamp.com/'
p1086
F0.00010098010424129149
sS'http://en.support.wordpress.com/tag/facebook/'
p1087
F0.00010203399342303305
sS'http://en.forums.wordpress.com/topic/apply-chinesetaiwan-validator-of-jetpack'
p1088
F0.00010239718359998586
sS'http://jobs.wordpress.net/2012/12/25/wordpress-damaged/'
p1089
F0.00011928077968520438
sS'http://www.wordpress.org'
p1090
F0.000526908036052113
sS'http://en.support.wordpress.com/twitter-follow-button/'
p1091
F0.00010122003762578095
sS'http://theme.wordpress.com/themes/mistylook/'
p1092
F0.00010043573639076904
sS'http://jackiedana.wordpress.com'
p1093
F0.00010098010424129149
sS'http://en.support.wordpress.com/widgets/goodreads-widget/goodreads_author-png/'
p1094
F0.00010113235375533204
sS'http://directory.codepoet.com/browse/services/security/'
p1095
F0.00011389051338749363
sS'http://en.support.wordpress.com/tag/methods/'
p1096
F0.00010090639472745637
sS'http://www.acquia.com'
p1097
F0.00012125205356852015
sS'http://en.wikipedia.org/wiki/Troll_%28Internet%29'
p1098
F0.00012666521356212885
sS'http://en.blog.wordpress.com/feed/'
p1099
F0.00012961323418684398
sS'http://en.forums.wordpress.com/topic/tranlation-for-french-invitation-follow-blog-mail'
p1100
F0.00010239718359998586
sS'http://en.support.wordpress.com/writing-helper/copy-a-post/'
p1101
F0.00010328403323721852
sS'http://en.support.wordpress.com/posts/schedule-a-post/'
p1102
F0.00011082357109747686
sS'http://help.twitter.com/forums/10711/entries/14016'
p1103
F0.00010108061339960554
sS'http://status.automattic.com/'
p1104
F0.00010555453793421597
sS'http://en.support.wordpress.com/tag/notifications/'
p1105
F0.00010162913630367059
sS'http://jobs.wordpress.net/2013/01/05/formatting-issues-with-wp-3-5/'
p1106
F0.00012600805987682655
sS'http://validator.w3.org/feed/'
p1107
F0.00010106530475121257
sS'https://signup.wordpress.com/signup/?theme=Debut&amp;source=musicwpcom'
p1108
F0.00010380877070940341
sS'http://ro.forums.wordpress.org/'
p1109
F0.00010562159929841417
sS'http://plugins.wp-persian.com/'
p1110
F0.00010692967168172537
sS'http://en.support.wordpress.com/trash/restore/'
p1111
F0.00010078931630996986
sS'http://gravatar.com/anushikniko'
p1112
F0.00010384451083367864
sS'http://jobs.wordpress.net/2013/01/08/s2member-developer-2/'
p1113
F0.00012600964034126496
sS'https://dev.twitter.com/docs/things-every-developer-should-know'
p1114
F0.00010423039847441184
sS'http://jobs.wordpress.net/2013/01/01/re-professional-wordpress-website/'
p1115
F0.00012592568934372664
sS'http://en.support.wordpress.com/trash/movedtrash/'
p1116
F0.00010078931630996986
sS'http://allnarfedup.com'
p1117
F0.00011444411814090003
sS'http://www.vianegativa.us/2010/06/how-to-format-poetry-on-the-web-an-incomplete-guide/'
p1118
F0.0001033180140202732
sS'http://jobs.wordpress.net/2012/12/25/wp-aggregation-and-ranking-plugin/'
p1119
F0.00011945874834993219
sS'http://gravatar.com/fineartdesign'
p1120
F0.00010414388239659028
sS'http://noscope.com'
p1121
F0.00010098010424129149
sS'http://ted.com/'
p1122
F0.0001011467129024999
sS'https://signup.wordpress.com/signup/?theme=Oxygen&amp;source=musicwpcom'
p1123
F0.00010380877070940341
sS'https://application.etracker.com/registration.php?formData[packageIds][]=86'
p1124
F0.0001005327676014011
sS'http://wordpress.com/wp-login.php'
p1125
F0.00013132175285259404
sS'http://en.support.wordpress.com/third-party-applications/'
p1126
F0.00011020680635232587
sS'https://www.etracker.com/index.php?id=114&L=0'
p1127
F0.000246239909843731
sS'https://www.etracker.com/index.php?id=114&L=1'
p1128
F0.00016126306308844872
sS'http://en.support.wordpress.com/domains/add-email/add-email-through-zoho-mail/customdns-zoho/'
p1129
F0.00010558206653638704
sS'http://gravatar.com/sejutamatahari'
p1130
F0.0001004401472020567
sS'http://en.support.wordpress.com/tag/shortcode/'
p1131
F0.0001295336118484327
sS'http://code.google.com/p/t13n/'
p1132
F0.00010113013167462669
sS'http://www.etracker.de/privacy?et=V23Jbb'
p1133
F0.00010179083570815765
sS'http://www.dreamhost.com/r.cgi?automattic'
p1134
F0.00010836681490524306
sS'http://vip.wordpress.com/category/news/'
p1135
F0.00012285054572412076
sS'http://www.blurb.com/planners'
p1136
F0.00012204341627014028
sS'http://en.forums.wordpress.com/topic/do-i-need-an-additional-validator-approval'
p1137
F0.00010239718359998586
sS'http://gravatar.com/hormood'
p1138
F0.00010196621256199319
sS'http://support.wordpress.com/splitting-content/more-tag/'
p1139
F0.00010072982770592996
sS'http://en.forums.wordpress.com/forum/translations'
p1140
F0.00010269948025163334
sS'http://twitter.com/spaz'
p1141
F0.0001036206227049716
sS'http://del.icio.us/post?url=http://everything2.com/user/Dhericean/writeups/Formatting+poems+and+simple+HTML&title=Formatting poems and simple HTML'
p1142
F0.00010047698059100642
sS'http://gravatar.com/healthy09'
p1143
F0.00010349357625307781
sS'http://www.notfall-plan.com/notfallplan-pages/kontakt.php'
p1144
F0.00031733202230275223
sS'http://mapandmenu.com'
p1145
F0.00010098010424129149
sS'http://gravatar.com/emails/'
p1146
F0.00010108591442077572
sS'http://www.twitter.com/michelleinchief'
p1147
F0.00010098010424129149
sS'http://example.wordpress.com/about/my-dogs/rosco/'
p1148
F0.00010106025222067651
sS'http://s.wordpress.org/about/images/desktops/wp-light-lo-2560x1440.png'
p1149
F0.0001008873366870441
sS'http://en.support.wordpress.com/trash/commenttrash/'
p1150
F0.00010078931630996986
sS'http://wordpressfoundation.org/philosophy/'
p1151
F0.00014471650738561792
sS'http://en.support.wordpress.com/tag/embeds/'
p1152
F0.00010626953124656622
sS'http://s.wordpress.org/about/images/desktops/wp-dkblue-orange-2048x1536.png'
p1153
F0.0001008873366870441
sS'http://gravatar.com/dgreentorres'
p1154
F0.00010274295580115411
sS'http://hew.vc/'
p1155
F0.00010184688625199817
sS'http://en.support.wordpress.com/tips-for-contacting-support/'
p1156
F0.0001100098322335277
sS'http://more.ericmeyeroncss.com/'
p1157
F0.00010374016964001587
sS'http://wordpress.tv/speakers/michael-pick/'
p1158
F0.00010436399226147529
sS'https://plus.google.com/105237212888595777019/posts/UTKKo5Su6Rj'
p1159
F0.00010022871867234076
sS'http://wordpress.org/support/profile/'
p1160
F0.00010130172710510673
sS'http://www.etracker.com/es/etracker-web-controlling-en-tiempo-real-y-estudio-de-mercad.html'
p1161
F0.00010639074436199736
sS'https://dev.twitter.com/docs/api/1.1/overview'
p1162
F0.00010343345567287721
sS'http://translate.wordpress.org/projects/wp/3.1.x/twentyten/kk/default'
p1163
F0.0001006537880291072
sS'http://au.blurb.com?redirect=true'
p1164
F0.0001291806110918928
sS'http://s.wordpress.org/about/images/desktops/wp-orange-2560x1440.png'
p1165
F0.0001008873366870441
sS'http://wpde.org/download/'
p1166
F0.00010639426815805364
sS'http://s.wordpress.org/about/images/desktops/wp-dkblue-blue-640x960.png'
p1167
F0.0001008873366870441
sS'http://wordpress.mfields.org/'
p1168
F0.00010098010424129149
sS'http://gravatar.com/kasmanto'
p1169
F0.00010404609451139749
sS'http://en.support.wordpress.com/tag/developers/'
p1170
F0.00010090639472745637
sS'http://developer.zemanta.com/'
p1171
F0.00014341652255327062
sS'http://id.wordpress.org/'
p1172
F0.00010372718613692998
sS'http://www.google.com/intl/en/policies/privacy/'
p1173
F0.00011395352436187708
sS'http://jobs.wordpress.net/2012/12/25/wordpress-experts-required/'
p1174
F0.00011915033328345175
sS'http://jobs.wordpress.net/2013/01/05/create-wp-theme-from-illustrator-layred-design/'
p1175
F0.00012594629730316396
sS'http://en.support.wordpress.com/tag/poems/'
p1176
F0.00010076214967021511
sS'http://en.support.wordpress.com/unwanted-comments/'
p1177
F0.00011097998710162227
sS'http://www.blurb.com/jobs'
p1178
F0.00011716482218100732
sS'http://hr.wordpress.org/'
p1179
F0.00010437057732762084
sS'http://ur.wordpress.org/'
p1180
F0.0001006537880291072
sS'http://www.wordpress-by.org'
p1181
F0.0001006537880291072
sS'http://dailymotion.com/'
p1182
F0.00010107260730533314
sS'http://www.vianegativa.us/author/kristin-berkey-abbott/'
p1183
F0.00017218228140116485
sS'http://en.support.wordpress.com/trash/restored/'
p1184
F0.00010078931630996986
sS'http://jobs.wordpress.net/2013/01/01/writers-needed-for-weight-loss-blog/'
p1185
F0.00013295792621791306
sS'http://www.notfall-plan.com/notfallplan-pages/startseite.php'
p1186
F0.00011018659299856513
sS'http://www.vianegativa.us/2013/01/kenosis/'
p1187
F0.00017218228140116485
sS'http://en.wikipedia.org/wiki/Vim_%28text_editor%29'
p1188
F0.00012622517075260717
sS'http://dailypost.wordpress.com/2012/04/24/where-credits-due/'
p1189
F0.00010069326907678689
sS'http://money.cnn.com/'
p1190
F0.00010112435163687178
sS'http://en.blog.wordpress.com/category/photos-2/'
p1191
F0.00011191340329213562
sS'http://gravatar.com/divainchrist'
p1192
F0.00010384056439145699
sS'http://dd32.id.au'
p1193
F0.00010098010424129149
sS'http://sl.wordpress.org/'
p1194
F0.00010089155808329406
sS'http://en.forums.wordpress.com/topic/google-website-translator-plugin-on-the-blog'
p1195
F0.00010239718359998586
sS'http://www.wufoo.com/blog/'
p1196
F0.00015765012407340797
sS'http://www.linkedin.com/groups?gid=154024'
p1197
F0.00010130172710510673
sS'http://www.vianegativa.us/author/nathan/'
p1198
F0.00017218228140116485
sS'http://digg.com/submit?phase=2&url=http%3A%2F%2Feverything2.com%2Fuser%2FDhericean%2Fwriteups%2FFormatting%2520poems%2520and%2520simple%2520HTML&title=Formatting poems and simple HTML'
p1199
F0.00010047698059100642
sS'http://en.support.wordpress.com/posts/post-revisions/'
p1200
F0.00011077492826435292
sS'http://www.vianegativa.us/author/luisa/'
p1201
F0.00017218228140116485
sS'http://wordpress.com/#!/read/topics/'
p1202
F0.00010219297288984482
sS'http://norskwp.no/forum/'
p1203
F0.00010544151230108083
sS'http://blog.wordthai.com/buddypress-thai/'
p1204
F0.0001067844524317919
sS'http://s.wordpress.org/about/images/desktops/wp-dkblue-orange-1440x900.png'
p1205
F0.0001008873366870441
sS'https://www.etracker.com/index.php?id=54&L=1'
p1206
F0.00016126306308844872
sS'http://pento.net/'
p1207
F0.00010098010424129149
sS'http://premiere.fastpencil.com'
p1208
F0.00010351777914477935
sS'http://svn.automattic.com/wordpress-i18n/ug_CN/trunk/messages/'
p1209
F0.0001006537880291072
sS'http://www.timparkin.co.uk/'
p1210
F0.00010127123287671231
sS'http://wphu.org/letoltes'
p1211
F0.00010390750321987984
sS'http://en.support.wordpress.com/tag/music/'
p1212
F0.00010637649789493768
sS'http://wordpress.stackexchange.com/'
p1213
F0.00010077135157047056
sS'http://en.support.files.wordpress.com/2012/07/gravatar-profile-form.jpg'
p1214
F0.00010113983013581321
sS'http://gravatar.com/mybyeworld'
p1215
F0.00010279868581859678
sS'http://www.timparkin.co.uk/2012/10/great-british-landscapes-a-new-photography-magazine/#comment-6919'
p1216
F0.00010133213779938133
sS'http://wpdocs.sourceforge.jp/WordPress_%E3%82%92%E4%BB%96%E3%81%AE%E8%A8%80%E8%AA%9E%E3%81%A7%E4%BD%BF%E3%81%86'
p1217
F0.00010127703129864885
sS'http://www.youtube.com/watch?v=C7W2NJFdoIg'
p1218
F0.00013829736625797347
sS'http://code.google.com/p/l10n-ru/'
p1219
F0.00010322901493761927
sS'http://gravatar.com/croswelllexingtonmiddleschool'
p1220
F0.00010414388239659028
sS'http://en.support.wordpress.com/domains/register-domain/'
p1221
F0.00011464977669833806
sS'http://buytaert.net/resume'
p1222
F0.00010048744544167334
sS'http://en.support.wordpress.com/tag/audio/'
p1223
F0.00010618582711876077
sS'http://www.blurb.com/swatch-kit'
p1224
F0.00011716482218100732
sS'http://www.blurb.com/bookstore/new'
p1225
F0.00011716482218100732
sS'http://www.scribd.com/'
p1226
F0.00010030841198269403
sS'http://s.wordpress.org/about/images/desktops/wp-light-lo-640x960.png'
p1227
F0.0001008873366870441
sS'http://en.support.wordpress.com/tag/widgets/'
p1228
F0.00010356588171724152
sS'http://surveymonkey.com'
p1229
F0.0001868649169504943
sS'https://www.google.com/adsense/localized-terms'
p1230
F0.00010576602634891684
sS'http://ted.com'
p1231
F0.0001011467129024999
sS'http://wordpress.org/'
p1232
F0.000588358980911389
sS'http://nn.wordpress.org/'
p1233
F0.00010544151230108083
sS'http://blurb.custhelp.com'
p1234
F0.00011716482218100732
sS'http://xzibit.com'
p1235
F0.00010380877070940341
sS'http://en.support.wordpress.com/tag/tinymce/'
p1236
F0.00010099518172691466
sS'http://en.blog.wordpress.com/2012/05/21/photo-blogging-101-part-2/comment-page-2/#comments'
p1237
F0.00010022871867234076
sS'http://theme.wordpress.com/themes/styles/grungy/'
p1238
F0.00010836898596859943
sS'http://s.wordpress.org/about/images/logos/codeispoetry-cmyk.pdf'
p1239
F0.0001008873366870441
sS'http://s.wordpress.org/about/images/desktops/wp-orange-2048x1536.png'
p1240
F0.0001008873366870441
sS'http://www.vianegativa.us/2010/06/how-to-format-poetry-on-the-web-an-incomplete-guide/#comment-14262'
p1241
F0.00010030841198269403
sS'http://www.vianegativa.us/2010/06/how-to-format-poetry-on-the-web-an-incomplete-guide/#comment-14263'
p1242
F0.00010030841198269403
sS'http://www.vianegativa.us/2010/06/how-to-format-poetry-on-the-web-an-incomplete-guide/#comment-14260'
p1243
F0.00010030841198269403
sS'http://www.vianegativa.us/2010/06/how-to-format-poetry-on-the-web-an-incomplete-guide/#comment-14261'
p1244
F0.00010030841198269403
sS'http://www.vianegativa.us/2010/06/how-to-format-poetry-on-the-web-an-incomplete-guide/#comment-14266'
p1245
F0.00010030841198269403
sS'http://www.vianegativa.us/2010/06/how-to-format-poetry-on-the-web-an-incomplete-guide/#comment-14267'
p1246
F0.00010030841198269403
sS'http://www.vianegativa.us/2010/06/how-to-format-poetry-on-the-web-an-incomplete-guide/#comment-14264'
p1247
F0.00010030841198269403
sS'http://www.vianegativa.us/2010/06/how-to-format-poetry-on-the-web-an-incomplete-guide/#comment-14265'
p1248
F0.00010030841198269403
sS'http://mattnt.com/2012/09/23/patience/'
p1249
F0.00010255791837015968
sS'http://qarrtsiluni.com/2009/10/21/an-irish-blessing/'
p1250
F0.00010066327099279168
sS'http://www.vianegativa.us/2010/06/how-to-format-poetry-on-the-web-an-incomplete-guide/#comment-14269'
p1251
F0.00010030841198269403
sS'http://en.support.wordpress.com/tag/cms/'
p1252
F0.00010090546087799629
sS'http://jobs.wordpress.net/2013/01/05/eliminate-bluehost-throttling/'
p1253
F0.00011954723827961948
sS'http://vimeo.com/46745200'
p1254
F0.00010351829995646453
sS'http://gravatar.com/mylifemystuff'
p1255
F0.00010250664409742248
sS'http://infogridpacific.typepad.com/publishing_with_xml/2009/09/advanced-poetry-xml.html'
p1256
F0.00010155836104169648
sS'http://en.support.wordpress.com/themes/adding-new-themes/'
p1257
F0.00010287700797931272
sS'http://jobs.wordpress.net/2013/01/10/custom-wordpress-theme-needed-3/'
p1258
F0.00012740113573253957
sS'http://www.vianegativa.us/author/joan/'
p1259
F0.00017218228140116485
sS'http://gravatar.com/thefactsack'
p1260
F0.00010389053546013783
sS'https://signup.wordpress.com/signup/?theme=Esquire&amp;source=musicwpcom'
p1261
F0.00010380877070940341
sS'http://wordpress.com/#%21/read/'
p1262
F0.00010069326907678689
sS'http://www.ifdesign.de'
p1263
F0.0009008689117241935
sS'http://twitter.com/'
p1264
F0.0001022684610495713
sS'http://extrapolate.me/'
p1265
F0.00010241754344766182
sS'http://gravatar.com/yenlinleong'
p1266
F0.0001004401472020567
sS'http://en.forums.wordpress.com/forum/css-customization'
p1267
F0.0001026517208698808
sS'http://en.support.wordpress.com/editors/resizeeditor/'
p1268
F0.00010099518172691466
sS'http://support.wordpress.com/stats'
p1269
F0.00010220249666446392
sS'http://lists.automattic.com/pipermail/wp-trac/'
p1270
F0.00014234152321929174
sS'http://en.support.wordpress.com/widgets/search-widget/'
p1271
F0.00014391759207274787
sS'http://en.support.wordpress.com/tag/embed/'
p1272
F0.00012670894895593172
sS'http://wordpress.or.id/'
p1273
F0.00010168349430052416
sS'http://example.wordpress.com/about/'
p1274
F0.00013284020659539109
sS'http://www.getmiro.com/'
p1275
F0.00010637567221708004
sS'http://bbpress.org/'
p1276
F0.0002257024984780372
sS'http://www.blurb.co.uk'
p1277
F0.00011835623739887999
sS'http://apeatling.wordpress.com/'
p1278
F0.00010265612256905246
sS'http://jobs.wordpress.net/2012/12/25/conversion-of-html-template-to-wordpress-theme/'
p1279
F0.0001313989742767108
sS'http://www.pledgie.com/campaigns/8477'
p1280
F0.00010130507806323114
sS'http://www.notfall-plan.com/notfallplan-pages/impressum.php'
p1281
F0.00031733202230275223
sS'http://www.zemanta.com/blog/'
p1282
F0.00016519096843640527
sS'http://en.support.wordpress.com/twitter/twitter-embeds/'
p1283
F0.00010839983160536526
sS'http://www.vianegativa.us/2013/01/looking-for-the-reader/'
p1284
F0.00017218228140116485
sS'http://vip.wordpress.com'
p1285
F0.00010749182424113339
sS'http://nl.blurb.com'
p1286
F0.00011835623739887999
sS'http://me.abelcheung.org/devel/wordpress-hong-kong-translation/'
p1287
F0.00010281838562117391
sS'http://www.flickr.com/photos/jrtashjian/'
p1288
F0.00010098010424129149
sS'http://dzver.com/blog/'
p1289
F0.00010272157343041297
sS'http://twitter.com/home?status=Formatting poems and simple HTML - http://everything2.com/s/mekz'
p1290
F0.00010047698059100642
sS'http://wordpressfoundation.org/feed/'
p1291
F0.00014471650738561792
sS'http://www.bobasyourguide.com/web_hosting_tutorial/greengeekslink/'
p1292
F0.00010183203908818382
sS'http://en.support.wordpress.com/tag/spam/'
p1293
F0.00010390279257042775
sS'http://svn.automattic.com/wordpress-i18n/sv_SE/tags/3.3.1/messages/'
p1294
F0.0001006537880291072
sS'http://eaternation.wordpress.com/'
p1295
F0.00010220040761588295
sS'http://en.support.wordpress.com/slideshows/slideshare/'
p1296
F0.0001025822953279005
sS'http://jobs.wordpress.net/2013/01/05/custom-contact-form/'
p1297
F0.00012936792676901287
sS'http://en.support.wordpress.com/posts/edit-posts-screen/'
p1298
F0.00011092777021344164
sS'http://s.wordpress.org/about/images/logos/wordpress-logo-textonly-rgb.png'
p1299
F0.0001008873366870441
sS'http://www.flickr.com/photos/vegasgeek/4592410322/'
p1300
F0.00010212614619749009
sS'http://help.wufoo.com/?l=en_US'
p1301
F0.00015765012407340797
sS'http://www.vianegativa.us/category/poems/videoetry/'
p1302
F0.00017218228140116485
sS'http://www.bobasyourguide.com/html_code_tutorial/'
p1303
F0.00010076214967021511
sS'http://s.wordpress.org/about/images/desktops/wp-dark-hi-1024x768.png'
p1304
F0.0001008873366870441
sS'http://support.wordpress.com/prevent-content-theft/'
p1305
F0.00010022871867234076
sS'http://s.wordpress.org/about/images/desktops/wp-dark-hi-2048x1536.png'
p1306
F0.0001008873366870441
sS'http://en.support.wordpress.com/audio/bandcamp/'
p1307
F0.00010560460081972279
sS'http://en.support.wordpress.com/editors/font-size-color/'
p1308
F0.00010336905014255827
sS'http://www.timparkin.co.uk/2012/10/great-british-landscapes-a-new-photography-magazine/#comment-6639'
p1309
F0.00010133213779938133
sS'http://gravatar.com/pratabnbc'
p1310
F0.00010287286628744114
sS'http://funkatron.com/apps/spaz/AIR/LICENSE.txt'
p1311
F0.00010130507806323114
sS'http://s.wordpress.org/about/images/desktops/wp-dark-hi-640x960.png'
p1312
F0.0001008873366870441
sS'http://wordpress-fr.net/support/'
p1313
F0.00010089155808329406
sS'http://en.support.wordpress.com/editors/media-icons/'
p1314
F0.00010624582099046059
sS'http://themes.wp-persian.com/'
p1315
F0.00010534552839629848
sS'http://wordpressfoundation.org/trademark-policy/'
p1316
F0.00015088401365923886
sS'http://en.forums.wordpress.com/topic/on-validator-profiles-in-the-translation-platform-1'
p1317
F0.00010239718359998586
sS'https://en.gravatar.com/profiles/edit/#verified-services'
p1318
F0.00010113983013581321
sS'http://www.hulu.com'
p1319
F0.00010107263608562423
sS'http://money.cnn.com/magazines/moneymag/'
p1320
F0.00010210853024665262
sS'http://en.support.wordpress.com/videos/educreations/'
p1321
F0.00011460618373371475
sS'http://www.morningporch.com/'
p1322
F0.00017218228140116485
sS'http://codex.wordthai.com/'
p1323
F0.00010211369827203668
sS'http://freshlypressed.wordpress.com/feed/'
p1324
F0.00010069326907678689
sS'http://blog.freenode.net'
p1325
F0.00010905534384565298
sS'https://www.etracker.com/en/etracker-real-time-web-analytics-online-market-research.html'
p1326
F0.00010075866530320784
sS'http://gravatar.com/zorytee'
p1327
F0.00010279868581859678
sS'http://s.wordpress.org/about/images/desktops/wp-orange-2880x1800.png'
p1328
F0.0001008873366870441
sS'http://support.wordpress.com/widgets/categories-widget/'
p1329
F0.00010098638531023051
sS'http://translate.google.com/support/toolkit/?hl=en'
p1330
F0.00013829736625797347
sS'http://gravatar.com/lindafarahdee'
p1331
F0.00010257294539435677
sS'http://en.support.wordpress.com/wordpress-logos/'
p1332
F0.00011407353925157252
sS'http://dailypost.wordpress.com/2012/01/03/a-pictures-worth/'
p1333
F0.00010069326907678689
sS'http://twitter.com/intent/user?screen_name=froginthevalley'
p1334
F0.00010376171471609718
sS'http://en.support.wordpress.com/menus/#creating-a-custom-menu'
p1335
F0.0001019321044691768
sS'http://www.wiwo.de/'
p1336
F0.00010087145415592214
sS'http://www.notfall-plan.com/notfallplan-media/pdf/installation/notfallplan-privat-installation.pdf'
p1337
F0.00011273324124820642
sS'http://www.theseorapper.com/'
p1338
F0.00010524450180782436
sS'http://inphotos.org/'
p1339
F0.00010098010424129149
sS'http://blog.wordthai.com/bbpress-%E0%B8%A0%E0%B8%B2%E0%B8%A9%E0%B8%B2%E0%B9%84%E0%B8%97%E0%B8%A2/'
p1340
F0.0001006537880291072
sS'http://www.vianegativa.us/category/poems/pepys-diary-erasure-project/'
p1341
F0.00017218228140116485
sS'http://en.blog.wordpress.com'
p1342
F0.00016858159128906389
sS'http://dokumentacio.wphu.org/'
p1343
F0.00010166182941443416
sS'http://wordpress.net.vn/showthread.php?21-Vi%E1%BB%87t-h%C3%B3a-blog-Wordpress/'
p1344
F0.0001006537880291072
sS'http://en.support.wordpress.com/tag/viddler/'
p1345
F0.00010114171474400793
sS'http://www.vianegativa.us/category/personalpolitical/'
p1346
F0.00017218228140116485
sS'http://daniloercoli.wordpress.com'
p1347
F0.0001018112162104052
sS'http://naokomc.com/'
p1348
F0.0001060961175279623
sS'http://twitter.com/WordPressVIP/statuses/287201116289126400'
p1349
F0.00012285054572412076
sS'http://en.support.wordpress.com/tag/pictures/'
p1350
F0.00010207758733068149
sS'http://en.support.wordpress.com/widgets/delicious-widget/'
p1351
F0.00014379703631144165
sS'http://wufoo.com/docs/code-manager/'
p1352
F0.00010107019485116261
sS'http://www.youtube.com/doublespeakshow'
p1353
F0.00010098010424129149
sS'https://twitter.com/privacy'
p1354
F0.00011787285024567368
sS'http://wp-brasil.org'
p1355
F0.00010316406946196551
sS'http://en.support.wordpress.com/tag/website/'
p1356
F0.00010090546087799629
sS'http://en.support.wordpress.com/custom-design/css-basics/'
p1357
F0.00010431223382156853
sS'http://apeatling.com'
p1358
F0.00010226672354108017
sS'http://apiwiki.twitter.com/Things-Every-Developer-Should-Know'
p1359
F0.00010090639472745637
sS'http://www.vianegativa.us/2010/06/how-to-format-poetry-on-the-web-an-incomplete-guide/#comment-14278'
p1360
F0.00010030841198269403
sS'http://gravatar.com/haymelter'
p1361
F0.00010341058275820858
sS'http://www.vianegativa.us/2010/06/how-to-format-poetry-on-the-web-an-incomplete-guide/#comment-14274'
p1362
F0.00010030841198269403
sS'http://www.vianegativa.us/2010/06/how-to-format-poetry-on-the-web-an-incomplete-guide/#comment-14277'
p1363
F0.00010030841198269403
sS'http://www.vianegativa.us/2010/06/how-to-format-poetry-on-the-web-an-incomplete-guide/#comment-14271'
p1364
F0.00010030841198269403
sS'http://www.vianegativa.us/2010/06/how-to-format-poetry-on-the-web-an-incomplete-guide/#comment-14270'
p1365
F0.00010030841198269403
sS'http://gravatar.com/middleeastinfo'
p1366
F0.00010250664409742248
sS'http://www.vianegativa.us/2010/06/how-to-format-poetry-on-the-web-an-incomplete-guide/#comment-14272'
p1367
F0.00010030841198269403
sS'https://developers.google.com/+/plugins/badge/config?utm_source=adsense&utm_medium=login&utm_campaign=badge'
p1368
F0.00010576602634891684
sS'http://en.support.wordpress.com/posts/categories/'
p1369
F0.00011466728363663956
sS'http://www.berater-wissen.de'
p1370
F0.00010100163693538222
sS'http://gravatar.com/wiederspielwert'
p1371
F0.00010349357625307781
sS'http://mkaz.wordpress.com/'
p1372
F0.00010542147180371772
sS'http://en.support.wordpress.com/code/posting-source-code/'
p1373
F0.00010700245265664345
sS'http://www.w3schools.com/html/default.asp'
p1374
F0.00010076214967021511
sS'http://directory.codepoet.com/browse/regions/asia/'
p1375
F0.00010313193516698812
sS'http://www.blurb.com/self-publish'
p1376
F0.00011716482218100732
sS'http://ask.oorodi.com'
p1377
F0.00010400891429680488
sS'http://help.wufoo.com/articles/en_US/SurveyMonkeyArticleType/Activity-Log'
p1378
F0.00015561569348535915
sS'http://www.vianegativa.us/2010/06/how-to-format-poetry-on-the-web-an-incomplete-guide/#comment-14311'
p1379
F0.00010030841198269403
sS'https://twitter.com/privacy/previous/version_1'
p1380
F0.00010327737302457674
sS'http://help.wufoo.com/?l=es'
p1381
F0.00015765012407340797
sS'http://translate.wordpress.com/'
p1382
F0.00010539805212904869
sS'http://www.vianegativa.us/2010/06/how-to-format-poetry-on-the-web-an-incomplete-guide/#comment-14301'
p1383
F0.00010030841198269403
sS'http://www.vianegativa.us/2010/06/how-to-format-poetry-on-the-web-an-incomplete-guide/#comment-14300'
p1384
F0.00010030841198269403
sS'http://www.vianegativa.us/2010/06/how-to-format-poetry-on-the-web-an-incomplete-guide/#comment-14303'
p1385
F0.00010030841198269403
sS'http://www.vianegativa.us/2010/06/how-to-format-poetry-on-the-web-an-incomplete-guide/#comment-14302'
p1386
F0.00010030841198269403
sS'http://www.vianegativa.us/2010/06/how-to-format-poetry-on-the-web-an-incomplete-guide/#comment-14307'
p1387
F0.00010030841198269403
sS'http://www.vianegativa.us/2010/06/how-to-format-poetry-on-the-web-an-incomplete-guide/#comment-14306'
p1388
F0.00010030841198269403
sS'http://www.alternate.org'
p1389
F0.00010098010424129149
sS'http://gravatar.com/toango'
p1390
F0.0001032202770546335
sS'http://aliceatwonderland.wordpress.com/2013/01/09/epic-quests-and-crap-like-that/'
p1391
F0.00010553483278767478
sS'http://en.support.wordpress.com/topic/widgets-sidebars/'
p1392
F0.00010090546087799629
sS'http://www.vianegativa.us/author/sarah/'
p1393
F0.00017218228140116485
sS'http://en.support.wordpress.com/tag/sharing/'
p1394
F0.00010107634774582486
sS'http://codex.wordpress.org/Special:Emailuser/Leuce'
p1395
F0.00010089155808329406
sS'http://gravatar.com/cidennis'
p1396
F0.0001035908448528976
sS'http://gravatar.com/crazykindness'
p1397
F0.00010384056439145699
sS'http://gravatar.com/gurung24'
p1398
F0.00010287286628744113
sS'http://www.timparkin.co.uk/2012/10/great-british-landscapes-a-new-photography-magazine/#comment-5135'
p1399
F0.00010133213779938133
sS'http://jobs.wordpress.net/2012/12/29/audio-recording-plugin/'
p1400
F0.00011933184227478955
sS'http://jobs.wordpress.net/2013/01/01/build-us-a-plugin/'
p1401
F0.0001194535857126216
sS'http://en.support.wordpress.com/widgets/categories-widget/'
p1402
F0.00014519808508645936
sS'https://twitter.com/tos/previous'
p1403
F0.00010229566391067685
sS'http://www.ampmusic.org'
p1404
F0.00010098010424129149
sS'http://jobs.wordpress.net/category/wordpress-design-positions/feed/'
p1405
F0.0005152443051093133
sS'http://jobs.wordpress.net/2013/01/10/custom-wordpress-theme-4/'
p1406
F0.0001331825085046581
sS'https://en.gravatar.com/profiles/edit/#your-links'
p1407
F0.00010113983013581321
sS'http://jobs.wordpress.net/2012/12/29/wordpress-and-salesforce-contact-form-7/'
p1408
F0.0001189785558019122
sS'http://en.blog.wordpress.com/2009/04/10/instant-findability/comment-page-2/#comments'
p1409
F0.00010038119065793985
sS'http://vip.wordpress.com/category/vip-hosting/'
p1410
F0.00012285054572412076
sS'http://wordpressfoundation.org/2010/our-first-project/'
p1411
F0.00014900473303538337
sS'http://s.wordpress.org/about/images/desktops/wp-light-lo-2048x1536.png'
p1412
F0.0001008873366870441
sS'http://vip.wordpress.com/category/case-studies/'
p1413
F0.00012285054572412076
sS'http://writingthroughthefog.com/2012/04/02/a-qa-with-karl-the-fog-san-franciscos-elusive-landmark/'
p1414
F0.0001014093501679533
sS'http://directory.codepoet.com/browse/regions/africa/'
p1415
F0.00010313193516698812
sS'http://twitter.com/intent/user?screen_name=BenWard'
p1416
F0.00010256437811889678
sS'http://www.blurb.com/bookstore'
p1417
F0.00011830680412119165
sS'https://dev.twitter.com/docs/intents'
p1418
F0.00010262812889780678
sS'http://www.etracker.com/gb/datenschutz.html'
p1419
F0.00010239021990332323
sS'http://www.vianegativa.us/author/dave/'
p1420
F0.00017218228140116485
sS'http://snooplion.com/'
p1421
F0.00010559089552934695
sS'http://jobs.wordpress.net/2013/01/05/help-me-steup-the-wp-site-for-a-commercial-website/'
p1422
F0.0001292682953964742
sS'http://sv.wordpress.org'
p1423
F0.0001006537880291072
sS'http://en.support.wordpress.com/images/instagram/'
p1424
F0.00010712313092505172
sS'http://gravatar.com/paul1988t'
p1425
F0.0001053829418177907
sS'http://gravatar.com/lokeelee'
p1426
F0.00010301891472233668
sS'http://en.support.wordpress.com/domains/add-email/add-email-through-zoho-mail/'
p1427
F0.0004954056840320433
sS'https://translations.launchpad.net/wordpress/2.0/+pots/wordpress/af/+translate'
p1428
F0.00010294137412072342
sS'http://ku.wordpress.org'
p1429
F0.0001006537880291072
sS'http://s.wordpress.org/about/images/logos/wordpress-logo-32-blue.png'
p1430
F0.0001008873366870441
sS'http://vip.wordpress.com/category/tools/'
p1431
F0.00012285054572412076
sS'http://en.support.wordpress.com/tag/calendar/'
p1432
F0.00010203142244735226
sS'http://gravatar.com/duchessoblunt'
p1433
F0.00010384056439145699
sS'https://plus.google.com/104290472118001868543'
p1434
F0.0001298585373470588
sS'http://www.blurb.com/bookstore/all'
p1435
F0.00011716482218100732
sS'http://lists.automattic.com/pipermail/wp-hackers/'
p1436
F0.00014271403427827448
sS'http://en.support.wordpress.com/tag/dashboard/'
p1437
F0.00010113727610546788
sS'http://automattic.com/map/'
p1438
F0.0001023057995333552
sS'http://my.opera.com/be-comp/forums/topic.dml?id=200505&amp;t=1186996417&amp;page=1#comment2196381'
p1439
F0.0001006537880291072
sS'http://codex.wordpress.org/'
p1440
F0.0001299766319861429
sS'http://www.w3schools.com'
p1441
F0.00010332918516927827
sS'http://www.etracker.com/en/etracker-real-time-web-analytics-online-market-research.html'
p1442
F0.00010077959049757238
sS'https://dev.twitter.com/issues/700'
p1443
F0.00010152311539669987
sS'http://gravatar.com/fashionecstasyt'
p1444
F0.0001031766221636497
sS'http://dailypost.wordpress.com/2012/07/12/verbs/'
p1445
F0.00010069326907678689
sS'http://en.support.wordpress.com/audio/rdio/'
p1446
F0.00010628422968866716
sS'http://en.blog.wordpress.com/2009/04/10/instant-findability/'
p1447
F0.00010435094223140469
sS'http://en.support.wordpress.com/settings/domains-settings/'
p1448
F0.00010979317746569264
sS'http://en.support.wordpress.com/who-can-comment/'
p1449
F0.00011563057851057143
sS'http://codex.wordpress.org/Using_Themes'
p1450
F0.00010154983928903867
sS'http://www.vianegativa.us/2010/06/how-to-format-poetry-on-the-web-an-incomplete-guide/#comment-924065'
p1451
F0.00010030841198269403
sS'http://buddypress.org/category/screencasts/'
p1452
F0.0001048359637701752
sS'http://www.guistuff.com/css/css_units.html'
p1453
F0.00010030841198269403
sS'http://svn.automattic.com/wordpress-i18n/su_ID/'
p1454
F0.0001006537880291072
sS'http://codex.wordpress.org/WordPress_in_Your_Language'
p1455
F0.00010597279739894477
sS'http://wufoo.com/'
p1456
F0.00010107019485116261
sS'http://www.vianegativa.us/category/smorgasblog/'
p1457
F0.00017218228140116485
sS'http://help.wufoo.com/articles/en_US/SurveyMonkeyArticleType/CSS-Keywords'
p1458
F0.00015561569348535915
sS'http://en.support.wordpress.com/tag/twitter-api/'
p1459
F0.00010090639472745637
sS'http://en.support.wordpress.com/settings/discussion-settings/'
p1460
F0.00012286885234506797
sS'http://en.support.wordpress.com/tag/e-mail/'
p1461
F0.00010252123442116319
sS'http://en.support.wordpress.com/using-wordpress-com-through-the-twitter-api/'
p1462
F0.00011783130409082944
sS'http://gravatar.com/carbonchica'
p1463
F0.00010309896049915509
sS'http://gravatar.com/shiroknowes'
p1464
F0.00010304684104202967
sS'http://nickmomrik.com/'
p1465
F0.00010269163143192897
sS'http://iandanielstewart.com/'
p1466
F0.0001014093501679533
sS'http://it.wordpress.org/'
p1467
F0.0001006537880291072
sS'http://s.wordpress.org/about/images/logos/wordpress-logo-notext-rgb.png'
p1468
F0.0001008873366870441
sS'http://blog.apokalyptik.com/'
p1469
F0.00010341335976533679
sS'https://www.etracker.com/fileadmin/pdf/etracker_Flyer_VM_Stand_2012_08.pdf'
p1470
F0.0001005327676014011
sS'http://qarrtsiluni.com/category/new-classics/'
p1471
F0.00010136584472037637
sS'http://www.fastpencil.com'
p1472
F0.00010304819573880023
sS'http://www.vianegativa.us/2013/01/two-kinds-of-boxes-cliche-and-meaning-in-videopoetry/'
p1473
F0.00011961313039721998
sS'http://blog.blurb.com/'
p1474
F0.00012990020963828344
sS'http://gravatar.com/sylvmoonshine1638'
p1475
F0.0001035908448528976
sS'http://learn.wordpress.com/get-customized/'
p1476
F0.00011499765048826065
sS'http://en.support.wordpress.com/pages/front-page/'
p1477
F0.00011225059455007663
sS'http://ja.forums.wordpress.org/'
p1478
F0.00011754845822087214
sS'http://jestro.com'
p1479
F0.00010473040719612958
sS'http://en.support.wordpress.com/tag/links/'
p1480
F0.00010959181973395651
sS'http://gravatar.com/diabetesmonitor'
p1481
F0.0001074114341222196
sS'http://forum.wp-persian.com/'
p1482
F0.00010558329845048534
sS'http://vip.wordpress.com/events/'
p1483
F0.0001585225051174889
sS'http://ru.wordpress.org'
p1484
F0.0001030090763384664
sS'http://wordpress.com/tos/'
p1485
F0.00020501104791328454
sS'http://support.zemanta.com/customer/portal/articles/586884-where-do-in-text-links-come-from-'
p1486
F0.00010351829995646453
sS'http://support.fastpencil.com'
p1487
F0.00010351777914477935
sS'http://en.support.wordpress.com/widgets/pages-widget/'
p1488
F0.00014582895332383212
sS'http://learn.wordpress.com/get-connected/'
p1489
F0.00011499765048826065
sS'http://mutelife.com/blog/'
p1490
F0.00010218224833947526
sS'http://gravatar.com/selmamoura'
p1491
F0.00010262664850714943
sS'http://help.wufoo.com/articles/en_US/SurveyMonkeyArticleType/Notifications'
p1492
F0.00015561569348535915
sS'http://en.support.wordpress.com/links/text-widget-links/'
p1493
F0.00010440222239893387
sS'http://en.support.wordpress.com/trash/trashcomment/'
p1494
F0.00010078931630996986
sS'http://support.wordpress.com/themes/adding-new-themes/'
p1495
F0.00010615093338122118
sS'http://www.vianegativa.us/category/audio/'
p1496
F0.00017218228140116485
sS'http://en.support.wordpress.com/widgets/text-widget/'
p1497
F0.0001428986763855455
sS'http://simpledream.net/'
p1498
F0.00010344406154917142
sS'http://www.vianegativa.us/2010/06/how-to-format-poetry-on-the-web-an-incomplete-guide/#comment-925912'
p1499
F0.00010030841198269403
sS'http://wp.me/p4oB3-aWO'
p1500
F0.00012285054572412076
sS'http://www.vianegativa.us/author/todd/'
p1501
F0.00017218228140116485
sS'http://gravatar.com/didiita'
p1502
F0.00010307208657884738
sS'http://jobs.wordpress.net/2013/01/08/paid-job-for-basic-wordpress-upgrade/'
p1503
F0.00012599945559383483
sS'http://en.support.wordpress.com/tag/formatting/'
p1504
F0.00010076214967021511
sS'http://s.wordpress.org/about/images/desktops/wp-dkblue-blue-2048x1536.png'
p1505
F0.0001008873366870441
sS'http://stuwest.org'
p1506
F0.00010098010424129149
sS'http://azaozz.wordpress.com/'
p1507
F0.00010205436066945526
sS'https://translations.launchpad.net/wordpress/1.5/+pots/wordpress/af/+translate'
p1508
F0.00010294137412072342
sS'http://gravatar.com/waldazel'
p1509
F0.00010396890307605228
sS'http://gravatar.com/dandylyonphotography'
p1510
F0.00010307208657884738
sS'http://gravatar.com/thephotographerinside'
p1511
F0.00010354206474523423
sS'http://bonusround.ryanmarkel.com'
p1512
F0.00010098010424129149
sS'http://www.blurb.com/color-management'
p1513
F0.00011716482218100732
sS'http://en.blog.wordpress.com/2009/04/02/march-wrap-up-2/'
p1514
F0.00010038119065793985
sS'http://help.wufoo.com/articles/en_US/SurveyMonkeyArticleType/Form-Builder'
p1515
F0.00015561569348535915
sS'http://ro.buddypress.org/'
p1516
F0.0001006537880291072
sS'http://nl.forums.wordpress.org/'
p1517
F0.00010717571881944683
sS'http://vimeo.com/zemanta'
p1518
F0.00010426437779484222
sS'http://www.blurb.de?redirect=true'
p1519
F0.0001291806110918928
sS'http://wordpress.com/wp-login.php?action=lostpassword'
p1520
F0.00019576055608548767
sS'http://code.google.com/p/wordpress-malagasy/'
p1521
F0.0001006537880291072
sS'http://gravatar.com/rossanafphoto'
p1522
F0.00010384056439145699
sS'http://techcrunch.com/'
p1523
F0.0001116806470704644
sS'http://www.notfall-plan.com/notfallplan-media/pdf/installation/notfallplan-firmen-installation.pdf'
p1524
F0.00011273324124820642
sS'http://www.blurb.com/bookstore/c-fine-art-photography'
p1525
F0.00011716482218100732
sS'http://jobs.wordpress.net'
p1526
F0.0005556955766004229
sS'http://en.support.wordpress.com/widgets/twitter-widget/'
p1527
F0.0001472312672050182
sS'http://paulmaiorana.com/'
p1528
F0.00010098010424129149
sS'http://en.support.wordpress.com/images/gallery/'
p1529
F0.00010761135814818342
sS'http://cs.wordpress.org/'
p1530
F0.0001006537880291072
sS'http://www.notfall-plan.com/notfallplan-media/pdf/lizenz/notfallplan-privat-lizenz.pdf'
p1531
F0.00011817773673461681
sS'http://gravatar.com/cendrowskiwieslawtomasz17'
p1532
F0.00010300215376371023
sS'http://twitter-api.wordpress.com'
p1533
F0.00010090639472745637
sS'http://en.support.wordpress.com/settings/discussion-settings/#e-mail-me-whenever'
p1534
F0.00010112384810798983
sS'http://wp.mattwie.be/'
p1535
F0.00010227888371714318
sS'http://jobs.wordpress.net/2013/01/08/professional-wordpress-developer/'
p1536
F0.00012600498892977282
sS'http://www.notfall-plan.com/notfallplan-pages/wissenswertes/notfallplan-privat/themenbereiche.php'
p1537
F0.00011391958944261395
sS'http://www.blurb.ca'
p1538
F0.00011831987363097155
sS'http://s.wordpress.org/about/images/desktops/wp-blue-2048x1536.png'
p1539
F0.0001008873366870441
sS'http://gravatar.com/cicisyafni'
p1540
F0.00010384056439145699
sS'http://wordpress.org/extend/plugins/jetpack/'
p1541
F0.00010701436399223917
sS'http://wordpress-fr.net/'
p1542
F0.00010089155808329406
sS'http://www.vianegativa.us/'
p1543
F0.00017218228140116485
sS'http://twitter.com/intent/user?screen_name=sferik'
p1544
F0.00010230542950454595
sS'http://gravatar.com/sumanraziq'
p1545
F0.00010390197160564663
sS'http://en.support.wordpress.com/trash/posttrash/'
p1546
F0.00010078931630996986
sS'http://br.blurb.com'
p1547
F0.00011836564356077297
sS'http://www.vianegativa.us/2013/01/sphere-of-wire/'
p1548
F0.00017218228140116485
sS'http://en.support.wordpress.com/videopress/videopress-share-options/'
p1549
F0.00010340096134048657
sS'http://jobs.wordpress.net/2012/12/29/adding-a-before-and-after-function-to-a-portfolio-website/'
p1550
F0.0001193574750207072
sS'http://www.notfall-plan.com/notfallplan-media/pdf/lizenz/notfallplan-firmen-lizenz.pdf'
p1551
F0.00011817773673461681
sS'http://en.support.wordpress.com/domain-mapping/map-existing-domain/'
p1552
F0.00010793887500925636
sS'http://jobs.wordpress.net/2012/12/25/full-time-sydney-wordpress-ios-developer/'
p1553
F0.00011914505455215405
sS'http://www.vianegativa.us/category/natureecology/rock-flipping-day/'
p1554
F0.00017218228140116485
sS'http://en.support.wordpress.com/twitter/twitter-tweet-button/'
p1555
F0.00010684136030126871
sS'http://ta-lk.wordpress.org'
p1556
F0.0001006537880291072
sS'http://support.wordpress.com/images/'
p1557
F0.00010088553694859601
sS'http://jobs.wordpress.net/2013/01/10/help-for-related-post-with-thumbnails/'
p1558
F0.00012642210547678234
sS'http://wordpress.tv/2012/10/12/fabianne-balvedi-estudo-de-caso-do-site-da-bicicletada-de-curitiba/'
p1559
F0.00010573323480421195
sS'http://gravatar.com/safwatsalm'
p1560
F0.00010371264478811317
sS'http://www.blurb.com/publishing'
p1561
F0.00014025894614839638
sS'http://en.support.wordpress.com/settings/reading-settings/'
p1562
F0.00011509505517797193
sS'http://lists.automattic.com/mailman/listinfo/wp-hackers'
p1563
F0.00025860047334190517
sS'http://wordpress.org/news/'
p1564
F0.00012081684068058479
sS'http://en.naoko.cc/'
p1565
F0.00010205436066945526
sS'http://www.flickr.com/photos/funkatron/tags/spaz/'
p1566
F0.00010130507806323114
sS'http://support.wordpress.com/no-ads/'
p1567
F0.00010573338366721573
sS'http://www.vianegativa.us/category/poems/letter-poems/'
p1568
F0.00017218228140116485
sS'http://en.blog.wordpress.com/2013/01/10/gridspace-and-just-desserts/'
p1569
F0.00010696877185861202
sS'http://gravatar.com/hoangcamapas'
p1570
F0.0001032754998151536
sS'http://www.etracker.com/de/etracker-echtzeit-webcontrolling-und-online-marktforschung.html'
p1571
F0.00010639074436199736
sS'http://www.python.net'
p1572
F9.999999999999998e-05
sS'http://dre.im/my-wordpress-tattoo/'
p1573
F0.00010348330428699806
sS'http://en.support.wordpress.com/widgets/goodreads-widget/'
p1574
F0.00014437281353474473
sS'http://trac.wordpress.org'
p1575
F0.00010130172710510673
sS'http://en.forums.wordpress.com/topic/request-for-belgian-french'
p1576
F0.00010239718359998586
sS'http://en.support.wordpress.com/videos/viddler/'
p1577
F0.00011702575564624397
sS'http://www.etracker.com/gb/etracker-echtzeit-web-controlling-und-online-marktforschung.html'
p1578
F0.00010239021990332323
sS'http://wp-danmark.dk/'
p1579
F0.00010139117841761259
sS'http://translate.wordpress.org/projects'
p1580
F0.00010813604055921986
sS'http://gravatar.com/max510'
p1581
F0.00010264386852062455
sS'http://svn.automattic.com/wordpress-i18n/sv_SE/tags/3.2.1/messages/'
p1582
F0.0001006537880291072
sS'http://en.wikipedia.org/wiki/HTML'
p1583
F0.00012595272839581155
sS'http://en.blog.files.wordpress.com/2012/04/photographytopic.png'
p1584
F0.00010022871867234076
sS'http://www.blurb.com/bookstore/c-wedding'
p1585
F0.00011716482218100732
sS'http://wordpress.org/extend/plugins/tinymce-advanced/'
p1586
F0.000106345413603149
sS'http://s.wordpress.org/about/images/desktops/wp-light-hi-2880x1800.png'
p1587
F0.0001008873366870441
sS'http://funkatron.com/getspaz'
p1588
F0.00010130507806323114
sS'http://directory.codepoet.com/browse/services/support-troubleshooting/'
p1589
F0.00011618233416990795
sS'http://gravatar.com/massanovaart'
p1590
F0.00010384056439145699
sS'http://en.support.wordpress.com/widgets/rss-links-widget/'
p1591
F0.00014654648833584954
sS'http://gravatar.com/perceptionshapes'
p1592
F0.00010338083815257561
sS'http://jobs.wordpress.net/category/general-positions/feed/'
p1593
F0.0005152443051093133
sS'http://gravatar.com/sarahocea'
p1594
F0.00010262664850714943
sS'http://www.palm.com/us/products/phones/pre/'
p1595
F0.00010130507806323114
sS'http://code.google.com/apis/ajaxlanguage/documentation/'
p1596
F0.00010299644835347539
sS'http://www.vianegativa.us/author/dick/'
p1597
F0.00017218228140116485
sS'http://en.support.wordpress.com/zemanta-for-recommended-links-photos-articles/'
p1598
F0.00011942898051977438
sS'http://en.forums.wordpress.com/topic/translation-from-portuguese-to-english'
p1599
F0.00010239718359998586
sS'http://gravatar.com/videoproductionplus'
p1600
F0.00010347800079527257
sS'http://support.wordpress.com/pages/#writing-a-new-page'
p1601
F0.0001018229282623195
sS'http://gravatar.com/akrummenacker'
p1602
F0.00010238417498854366
sS'http://en.support.wordpress.com/tag/moderation/'
p1603
F0.00010162913630367059
sS'http://www.vianegativa.us/2010/06/how-to-format-poetry-on-the-web-an-incomplete-guide/#comment-14268'
p1604
F0.00010030841198269403
sS'http://www.zemanta.com/about/'
p1605
F0.00014706744588769278
sS'https://application.etracker.com/registration.php?formData[packageIds][]=86&languageId=2&currencyId=1'
p1606
F0.00010933226019771559
sS'http://planet.wp-persian.com/'
p1607
F0.00010294137412072342
sS'https://application.etracker.com/registration.php?formData[packageIds][]=86&languageId=2&currencyId=5'
p1608
F0.00010125951914197935
sS'http://de.wordpress.org'
p1609
F0.0001006537880291072
sS'http://twitter.com/blurbbooks'
p1610
F0.00013420251396972197
sS'http://gravatar.com/i3rasaila'
p1611
F0.00010328913756408619
sS'http://translate.wordpress.org/projects/wp/3.1.x/kk/default'
p1612
F0.0001006537880291072
sS'http://www.notfall-plan.com/notfallplan-pages/stick-bestellen/bestellung-firmen.php'
p1613
F0.00011563108848497552
sS'http://s.wordpress.org/about/images/desktops/wp-dark-hi-1440x900.png'
p1614
F0.0001008873366870441
sS'http://s.wordpress.org/about/images/desktops/wp-blue-2560x1440.png'
p1615
F0.0001008873366870441
sS'http://www.etracker.com/gb/impressum.html'
p1616
F0.00010239021990332323
sS'http://en.support.wordpress.com/com-vs-org/'
p1617
F0.00011617828343270456
sS'http://www.vianegativa.us/2013/01/rabbit-or-ambassador/'
p1618
F0.00017218228140116485
sS'https://dev.twitter.com/docs/using-search'
p1619
F0.00010262812889780678
sS'http://jobs.wordpress.net/2013/01/01/sorting-wp-auctions-by-dateprice/'
p1620
F0.00011940149779998905
sS'http://codex.wp-persian.com/'
p1621
F0.00010558329845048534
sS'http://en.support.wordpress.com/twitter-blackbird-pie/'
p1622
F0.00010295902944618414
sS'http://br.wordpress.org'
p1623
F0.00010157080197989815
sS'http://www.youtube.com/'
p1624
F0.0001010679597974626
sS'http://peterslutsky.com/'
p1625
F0.0001019749821156498
sS'http://bitswapping.com'
p1626
F0.00010098010424129149
sS'http://news.cnet.com/8301-1023_3-10217343-93.html?tag=newsEditorsPicksArea.0'
p1627
F0.00010038119065793985
sS'http://wordpress.tv/2012/08/28/ryan-imel-the-state-of-themes/'
p1628
F0.00010389304856686455
sS'http://www.blurb.com/business'
p1629
F0.00014025894614839638
sS'http://en.support.wordpress.com/widgets/my-community/'
p1630
F0.0001424534091227313
sS'http://s.wordpress.org/about/images/logos/wordpress-logo-notext-cmyk.pdf'
p1631
F0.0001008873366870441
sS'http://iflicks.wordpress.com/2012/05/21/553/'
p1632
F0.00010126735824438258
sS'http://www.notfall-plan.com/notfallplan-pages/impressum/sitemap.php'
p1633
F0.00031733202230275223
sS'http://www.google.com/intl/en/policies/terms/'
p1634
F0.00010622339273414122
sS'http://issuu.com/'
p1635
F0.00010030841198269403
sS'http://en.support.wordpress.com/webhooks/'
p1636
F0.0001088120994508249
sS'http://www.wufoo.com'
p1637
F0.00010656767214617674
sS'http://dailypost.wordpress.com/2012/07/19/affect-and-effect/'
p1638
F0.00010069326907678689
sS'http://wordpress.org/extend/plugins/wufoo-shortcode/'
p1639
F0.00010614973237749145
sS'http://www.google.com/support/bin/answer.py?answer=23852&amp;hl=en'
p1640
F0.00010622339273414122
sS'http://en.support.wordpress.com/trash/permdeleted/'
p1641
F0.00010078931630996986
sS'http://support.zemanta.com/customer/portal/articles/674776-how-can-i-increase-traffic-on-my-site-with-zemanta-'
p1642
F0.00010351829995646453
sS'http://id.forums.wordpress.org/'
p1643
F0.00010687184399269748
sS'http://svn.automattic.com/wordpress-i18n/fo/branches/2.7/messages/fo.mo'
p1644
F0.0001006537880291072
sS'http://prefs.zemanta.com/'
p1645
F0.00015856542974342246
sS'http://gravatar.com/creativelyput'
p1646
F0.0001035908448528976
sS'http://raanan.com/'
p1647
F0.00010157323260691405
sS'http://wordpress.org/extend/themes/'
p1648
F0.00013933183370591428
sS'http://gravatar.com/bstuff07'
p1649
F0.00010354206474523423
sS'http://en.support.wordpress.com/tag/subpages/'
p1650
F0.00010106025222067651
sS'http://jobs.wordpress.net/2012/12/29/writers-needed-for-top-wordpress-blog/'
p1651
F0.00013295860288701288
sS'http://atp.ayar.co'
p1652
F0.0001006537880291072
sS'http://en.support.wordpress.com/passwords/'
p1653
F0.00013762313019584198
sS'http://lists.automattic.com/mailman/listinfo/wp-svn'
p1654
F0.0002562752943394529
sS'http://www.google.com/'
p1655
F0.0001442847001751931
sS'http://jobs.wordpress.net/postajob.php'
p1656
F0.0005556955766004229
sS'http://jobs.wordpress.net/2012/12/25/transferring-code/'
p1657
F0.00012922371617755515
sS'http://en.support.wordpress.com/custom-design/custom-fonts/'
p1658
F0.0001074108745845167
sS'http://videolog.tv/'
p1659
F0.0001011765848435765
sS'http://s.wordpress.org/about/images/desktops/wp-dkblue-orange-2560x1440.png'
p1660
F0.0001008873366870441
sS'http://en.support.wordpress.com/domains/cancel-domain/'
p1661
F0.00011625340947264562
sS'http://help.wufoo.com/articles/en_US/SurveyMonkeyArticleType/Login'
p1662
F0.00015561569348535915
sS'http://johnjamesjacoby.wordpress.com'
p1663
F0.00010098010424129149
sS'http://en.blog.wordpress.com/2013/01/08/responsive-themes/'
p1664
F0.00010752449570626635
sS'http://codex.wordpress.org/Codex-ul_\xc3\xaen_rom\xc3\xa2n\xc4\x83'
p1665
F0.0001006537880291072
sS'http://directory.codepoet.com/browse/services/migration/'
p1666
F0.00011618233416990795
sS'http://en.forums.wordpress.com/topic/czech-specific-characters-are-displayed-wrong-way'
p1667
F0.00010239718359998586
sS'http://gravatar.com/lauriebartolo'
p1668
F0.00010307208657884738
sS'http://gravatar.com/anasararojas'
p1669
F0.00010280606572488999
sS'http://en.support.wordpress.com/tag/social/'
p1670
F0.00010240716389150994
sS'http://codex.wordpress.org/Upgrading_WordPress'
p1671
F0.00011486763093449647
sS'http://directory.codepoet.com/browse/regions/central-america/'
p1672
F0.00010313193516698812
sS'http://thecuckoosnest.wordpress.com/'
p1673
F0.00010244371798070569
sS'http://wordpress.org/about/logos/'
p1674
F0.00010647907646804841
sS'http://en.support.wordpress.com/tag/community/'
p1675
F0.00010069326907678689
sS'http://blurb.custhelp.com/'
p1676
F0.00012091410138208226
sS'http://twitter.com/intent/user?screen_name=twitterapi'
p1677
F0.00010507717334203452
sS'http://gravatar.com/veechemistry'
p1678
F0.00010349357625307781
sS'http://en.support.wordpress.com/pages/schedule-a-page/'
p1679
F0.00010912959891593344
sS'http://translate.e-khmer.net/wordpress/'
p1680
F0.0001006537880291072
sS'http://gravatar.com/nonoymanga'
p1681
F0.00010307208657884738
sS'https://mya.wordpress.org'
p1682
F0.0001006537880291072
sS'http://en.forums.wordpress.com/forum/translations/'
p1683
F0.000101061125313721
sS'http://help.wufoo.com/articles/en_US/SurveyMonkeyArticleType/Wufoo-REST-API-V3'
p1684
F0.00015561569348535915
sS'https://translations.launchpad.net/wordpress/2.8/+pots/wordpress/ku/+translate'
p1685
F0.0001006537880291072
sS'https://'
p1686
F0.00010114354963830483
sS'http://andretan.org/'
p1687
F0.00010030841198269403
sS'http://en.support.wordpress.com/tag/gravatar/'
p1688
F0.00010199455242657631
sS'http://gravatar.com/montus'
p1689
F0.0001035908448528976
sS'https://www.etracker.com/index.php?id=52&L=0'
p1690
F0.000246239909843731
sS'http://en.support.wordpress.com/tag/blacklist/'
p1691
F0.00010162913630367059
sS'http://support.wordpress.com/widgets/text-widget/'
p1692
F0.00010276863375516109
sS'http://theme.wordpress.com/themes/sort/premium/'
p1693
F0.0001196700536579949
sS'http://www.blurb.com/wedding-books'
p1694
F0.00012204341627014028
sS'http://jobs.wordpress.net/2013/01/05/rockstar-wordpress-designerprogramer/'
p1695
F0.00013109689990614673
sS'http://vip.wordpress.com/submit-news/'
p1696
F0.00012285054572412076
sS'http://bs.wordpress.org/'
p1697
F0.0001006537880291072
sS'http://gravatar.com/susielindau'
p1698
F0.00010381853170219525
sS'http://en.support.wordpress.com/posts/tag-management/'
p1699
F0.00010115371602900022
sS'http://es.wordpress.org'
p1700
F0.0001006537880291072
sS'http://vip.wordpress.com/partners/'
p1701
F0.0001585225051174889
sS'http://en.support.wordpress.com/pages/page-attributes/'
p1702
F0.00012325424901931005
sS'https://www.etracker.com/de/etracker-produkte-echtzeit-web-controlling-visitor-voice/etracker-visitor-motion.html'
p1703
F0.00010122584424359735
sS'http://en.support.wordpress.com/tag/files/'
p1704
F0.00010107634774582486
sS'http://www.blurb.com/pdf_to_book'
p1705
F0.00011716482218100732
sS'http://en.support.wordpress.com/tag/topics/'
p1706
F0.00010109014587736604
sS'http://pdpc.us'
p1707
F0.00010089948253953173
sS'http://gravatar.com/2flyamerica'
p1708
F0.00010288378406847586
sS'http://gravatar.com/basilbloginc'
p1709
F0.0001031766221636497
sS'http://sr.forums.wordpress.org/'
p1710
F0.00012907274507130583
sS'http://en.support.wordpress.com/pages/page-revisions/'
p1711
F0.0001092149814905852
sS'http://gravatar.com/nocturnefirefay'
p1712
F0.00010384056439145699
sS'http://www.blurb.com/booksmart'
p1713
F0.00013168550253412787
sS'http://www.sfgenealogy.com/sf/history/hgoe82.htm'
p1714
F0.00010098010424129149
sS'http://slebog.net/pecynnau/wordpress/'
p1715
F0.0001006537880291072
sS'http://pt.forums.wordpress.org'
p1716
F0.00010263617961921525
sS'http://www.wufoo.com/forums/'
p1717
F0.00015765012407340797
sS'http://lists.automattic.com/pipermail/wp-svn/'
p1718
F0.00014234152321929177
sS"http://delicious.com/save?v=5&noui&jump=close&url='+document.URL+'&title='+document.title+'"
p1719
F0.00010332918516927827
sS'http://s.wordpress.org/about/images/desktops/wp-light-lo-1440x900.png'
p1720
F0.0001008873366870441
sS'http://tekartist.org/'
p1721
F0.0001016813549652309
sS'http://www.vianegativa.us/2013/01/fisheye/'
p1722
F0.00017218228140116485
sS'http://s.wordpress.org/about/images/desktops/wp-light-hi-1024x768.png'
p1723
F0.0001008873366870441
sS'http://wordpress.com/products/'
p1724
F0.00010090235567271169
sS'http://learn.wordpress.com/get-flashy/'
p1725
F0.00011524627584408831
sS'http://automattic.com'
p1726
F0.00012418768523953807
sS'http://en.support.wordpress.com/tag/topic-page/'
p1727
F0.00010109014587736604
sS'http://www.blurb.com/volume-orders'
p1728
F0.0001255873104264412
sS'http://lists.automattic.com/pipermail/wp-accessibility/'
p1729
F0.00014234152321929174
sS'http://en.support.wordpress.com/widgets/archives-widget/'
p1730
F0.000143758376692952
sS'http://philiparthurmoore.com/'
p1731
F0.00010244358401299475
sS'http://nl.blurb.com?redirect=true'
p1732
F0.0001291806110918928
sS'http://wpde.org/'
p1733
F0.00011604933538418403
sS'https://www.etracker.com/de/etracker-echtzeit-webcontrolling-und-online-marktforschung.html'
p1734
F0.00010353508232791538
sS'http://sr.wordpress.org/docs/clean-install/'
p1735
F0.00010707806237545061
sS'http://gravatar.com/qutaib'
p1736
F0.00010414388239659028
sS'http://downforeveryoneorjustme.com/wordpress.com'
p1737
F0.00010099033391412955
sS'http://www.vianegativa.us/category/books-and-music/'
p1738
F0.00017218228140116485
sS'http://gravatar.com/blastedgoat'
p1739
F0.00010262988700393566
sS'http://he.wordpress.org/'
p1740
F0.0001006537880291072
sS'http://wordpress.org/download/'
p1741
F0.00012204234305418207
sS'http://en.support.wordpress.com/videos/cnnmoney-video/'
p1742
F0.00011665147329192104
sS'http://jobs.wordpress.net/2013/01/05/help-with-existing-website/'
p1743
F0.0001256344818880921
sS'http://www.notfall-plan.com/notfallplan-pages/impressum/agb.php'
p1744
F0.00031733202230275223
sS'http://wordpress.com/signup/?ref=forum-header'
p1745
F0.00016176508667669026
sS'http://wordpress.com/?ref=wporg-download'
p1746
F0.00010361606943497775
sS'https://application.etracker.com/registration.php?formData[packageIds][]=92'
p1747
F0.00010060433339860423
sS'http://help.wufoo.com/articles/en_US/SurveyMonkeyArticleType/Templating'
p1748
F0.00015561569348535915
sS'http://en.support.wordpress.com/settings/email-post-changes/'
p1749
F0.00010971733598144704
sS'http://s.wordpress.org/about/images/desktops/wp-dark-hi-2880x1800.png'
p1750
F0.0001008873366870441
sS'http://www.blurb.com/blurbnation/directory'
p1751
F0.00011716482218100732
sS'http://www.vianegativa.us/2010/06/how-to-format-poetry-on-the-web-an-incomplete-guide/#comment-37534'
p1752
F0.00010030841198269403
sS'http://en.support.wordpress.com/widgets/recent-comments-widget/'
p1753
F0.00014641599694369519
sS'https://dev.twitter.com/discussions/11538'
p1754
F0.00010152311539669987
sS'http://wordpressfoundation.org/2012/wordcamps-and-such/'
p1755
F0.00014900473303538337
sS'http://www.standortanalyse.biz/de/standortanalyse-fuehrung.html'
p1756
F0.00010425270050254238
sS'http://gravatar.wordpress.com/wp-login.php'
p1757
F0.00010522184416653413
sS'http://wordpress.tv/language/english/'
p1758
F0.00010530976703555133
sS'http://s.wordpress.org/about/images/desktops/wp-dark-hi-2560x1440.png'
p1759
F0.0001008873366870441
sS'http://jobs.wordpress.net/2013/01/01/upgrades/'
p1760
F0.00012564341760921694
sS'https://application.etracker.com/registration.php?formData[packageIds][]=92&languageId=2&currencyId=1'
p1761
F0.00010933226019771559
sS'http://en.support.wordpress.com/tag/feed/'
p1762
F0.00010113824305713833
sS'http://wordpress.com/#!/fresh/'
p1763
F0.00010155183936690163
sS'http://www.adiumxtras.com/index.php?a=xtras&amp;xtra_id=602'
p1764
F0.00011143558587084565
sS'http://doku.wordpress-deutschland.org/'
p1765
F0.00010211369827203668
sS'http://azerblog.com/wordpress/dil/azr01/wp-content/languages/azr_AZR.mo'
p1766
F0.0001006537880291072
sS'http://www.blurb.com/bookstore/c-travel'
p1767
F0.00011716482218100732
sS'http://magp.ie/'
p1768
F0.00010184688625199817
sS'https://en.wordpress.com/signup/?ref=forum-header'
p1769
F0.00016176508667669026
sS'http://vip.wordpress.com/category/vip-plugins/'
p1770
F0.00012285054572412076
sS'http://en.support.wordpress.com/tag/stats/'
p1771
F0.00010416933464540366
sS'http://gravatar.com/rigmover'
p1772
F0.00010328913756408619
sS'http://progresspublishing.wordpress.com/2012/05/31/photo-blogging-101-part-2/'
p1773
F0.00010095633187525666
sS'http://www.hulu.com/watch/369061%5D'
p1774
F0.00010107263608562423
sS'http://www.blurb.com/sell-your-book'
p1775
F0.00011716482218100732
sS'http://s.wordpress.org/about/images/logos/wordpress-logo-stacked-cmyk.pdf'
p1776
F0.0001008873366870441
sS'http://www.vianegativa.us/category/dreams/'
p1777
F0.00017218228140116485
sS'http://www.piggin.net/poetry1.htm'
p1778
F0.00010076214967021511
sS'http://svn.automattic.com/wordpress-i18n/fo/branches/2.8/messages/fo.mo'
p1779
F0.0001006537880291072
sS'http://s.wordpress.org/about/images/logos/wordpress-logo-simplified-cmyk.pdf'
p1780
F0.0001008873366870441
sS'http://www.blurb.com/webinars'
p1781
F0.00011716482218100732
sS'http://s.wordpress.org/about/images/desktops/wp-dkblue-blue-2880x1800.png'
p1782
F0.0001008873366870441
sS'http://support.wordpress.com/code/#javascript'
p1783
F0.00010099518172691466
sS'http://en.support.wordpress.com/tag/split/'
p1784
F0.00010437222062130474
sS'https://dev.twitter.com/discussions/10707'
p1785
F0.00010152311539669987
sS'http://bradangelcyk.com'
p1786
F0.0001016937445539931
sS'http://cy.wordpress.org/'
p1787
F0.0001006537880291072
sS'http://directory.codepoet.com/browse/services/theme-development/'
p1788
F0.00011618233416990795
sS'http://en.support.wordpress.com/tag/tags/'
p1789
F0.00010301880856366606
sS'https://application.etracker.com/registration.php?formData[packageIds][]=68&languageId=2&currencyId=5'
p1790
F0.00010125951914197935
sS'http://en.support.wordpress.com/custom-design/custom-colors/'
p1791
F0.00010563204883465291
sS'http://gravatar.com/maryannemc'
p1792
F0.00010379201447958394
sS'http://www.twitter.com/fastpencil'
p1793
F0.00010351777914477935
sS'http://en.support.wordpress.com/posts/post-screen/'
p1794
F0.00011070718015604574
sS'http://www.blurb.com/blog-book'
p1795
F0.00011716482218100732
sS'http://en.support.wordpress.com/tag/reader/'
p1796
F0.00010109014587736604
sS'http://adsense.blogspot.com/#utm_source=ww-en-et-storefront_adsense&amp;utm_campaign=en&amp;utm_medium=et'
p1797
F0.00010576602634891684
sS'http://browsershots.org'
p1798
F0.00010225614813774295
sS'http://gravatar.com/zeshane'
p1799
F0.00010368488138631451
sS'http://en.support.wordpress.com/tag/menus/'
p1800
F0.0001019321044691768
sS'http://wppluginsj.sourceforge.jp/'
p1801
F0.00010127224448398263
sS'http://en.support.wordpress.com/upgrades/#refunds'
p1802
F0.00010088553694859601
sS'http://karenalma.com/'
p1803
F0.00010234470024463597
sS'https://dev.twitter.com/docs/moving-basic-auth-oauth'
p1804
F0.00010152311539669987
sS'http://gravatar.com/littlemissmayura'
p1805
F0.00010384056439145699
sS'http://en.support.wordpress.com/widgets/top-posts-widget/'
p1806
F0.00014510311641740842
sS'http://vip.wordpress.com/liveblog-add-on/'
p1807
F0.0001045642040200864
sS'http://jobs.wordpress.net/2013/01/01/mods-required-to-a-form-plugin/'
p1808
F0.00011914561463032692
sS'http://nb.niichavo.org/archive/calcs/wordpress/in-bulgarian/'
p1809
F0.0001006537880291072
sS'http://jobs.wordpress.net/feed/'
p1810
F0.0005152443051093133
sS'http://support.wordpress.com/space-upgrade'
p1811
F0.00010448454915429175
sS'http://www.blurb.es'
p1812
F0.00011835623739887999
sS'http://s.wordpress.org/about/images/logos/wordpress-logo-stacked-rgb.png'
p1813
F0.0001008873366870441
sS'http://www.notfall-plan.com/notfallplan-pages/impressum/datenschutz.php'
p1814
F0.00031733202230275223
sS'https://launchpad.net/~wp-sinhala'
p1815
F0.0001006537880291072
sS'http://en.support.wordpress.com/media/uploader/'
p1816
F0.00010387350932155871
sS'http://en.support.wordpress.com/videos/vimeo/'
p1817
F0.00011631708333286316
sS'http://en.support.wordpress.com/videos/bliptv/'
p1818
F0.00011494804090011328
sS'http://gravatar.com/thegift73'
p1819
F0.00010307208657884738
sS'http://en.forums.wordpress.com/topic/overwriting-wordpresscom-translations-with-org-ones'
p1820
F0.00010239718359998586
sS'https://www.etracker.com/index.php'
p1821
F0.000246239909843731
sS'http://svn.automattic.com/wordpress-i18n/bn_BD/trunk/messages/'
p1822
F0.0001006537880291072
sS'http://en.support.wordpress.com/tag/visual-editor/'
p1823
F0.00010172500943284465
sS'http://www.vianegativa.us/category/rants/'
p1824
F0.00017218228140116485
sS'http://www.viddler.com/'
p1825
F0.00010756341094399425
sS'http://cn.wordpress.org/'
p1826
F0.0001006537880291072
sS'http://www.sigmagroup.ie/wordpress/'
p1827
F0.0001006537880291072
sS'http://en.support.wordpress.com/tag/layout/'
p1828
F0.00010069326907678689
sS'http://tr.wordpress.org/'
p1829
F0.0001006537880291072
sS'http://s.wordpress.org/about/images/desktops/wp-blue-640x960.png'
p1830
F0.0001008873366870441
sS'http://en.support.wordpress.com/tag/wufoo/'
p1831
F0.00010107019485116261
sS'http://www.notfall-plan.com/notfallplan-pages/wissenswertes/notfallplan-privat/leistungsumfang.php'
p1832
F0.00011391958944261395
sS'http://codex.wordpress.org/ur:Main_Page'
p1833
F0.00010315450325969437
sS'http://gravatar.com/riniintama'
p1834
F0.00010237714069471208
sS'http://en.support.wordpress.com/transliteration/'
p1835
F0.00010736250265696895
sS'https://application.etracker.com/registration.php?formData[packageIds][]=68&languageId=2&currencyId=1'
p1836
F0.00010933226019771559
sS'https://public-api.wordpress.com'
p1837
F0.00010111601835792678
sS'http://en.support.wordpress.com/domains/redirect-trick/'
p1838
F0.00011620578902814492
sS'http://gravatar.com/joelemmanuel'
p1839
F0.0001031766221636497
sS'http://svn.automattic.com/wordpress-i18n/sv_SE/tags/3.1.3/messages/'
p1840
F0.0001006537880291072
sS'http://lists.automattic.com/mailman/listinfo/wp-docs'
p1841
F0.00018234310879773564
sS'http://jobs.wordpress.net/2012/12/25/writers-for-wordpress-web-design/'
p1842
F0.00013296764831344365
sS'https://www.google.com/adsense/support/bin/answer.py?answer=48182&amp;hl=en&amp;utm_source=ww-en-et-storefront_adsense&amp;utm_campaign=en&amp;utm_medium=et'
p1843
F0.00010576602634891684
sS'http://en.forums.wordpress.com/topic/gujarati-language-characters-appear-as-junk-characters-in-emailposts-to-follower'
p1844
F0.00010239718359998586
sS'http://en.forums.wordpress.com/topic/blog-forum-translate'
p1845
F0.00010239718359998586
sS'http://en.support.wordpress.com/tag/top-rated/'
p1846
F0.00010113832901412426
sS'http://digg.com/submit?phase=2&url=http%3A%2F%2Feverything2.com%2Fuser%2FMagenta%2Fwriteups%2FFormatting%2520poems%2520and%2520simple%2520HTML&title=Formatting poems and simple HTML'
p1847
F0.00010047698059100642
sS'https://www.etracker.com/fr/etracker-unternehmen-web-controlling-und-analyse-software/etracker-partnerpgrogram-sales-und-technologie-partner.html'
p1848
F0.00010170475605730602
sS'http://support.wordpress.com/google-calendar/'
p1849
F0.00010113932432985966
sS'http://ru.forums.wordpress.org'
p1850
F0.00010376672048481246
sS'http://kingofstates.wordpress.com/'
p1851
F0.00010098010424129149
sS'http://en.support.wordpress.com/tag/feeds/'
p1852
F0.00010319264621635942
sS'http://s.wordpress.org/about/images/desktops/wp-dkblue-blue-1440x900.png'
p1853
F0.0001008873366870441
sS'http://s.wordpress.org/about/images/desktops/wp-dkblue-blue-1024x768.png'
p1854
F0.0001008873366870441
sS'https://application.etracker.com/registration.php?formData[packageIds][]=88'
p1855
F0.0001005327676014011
sS'https://application.etracker.com/registration.php?formData[packageIds][]=89'
p1856
F0.0001005327676014011
sS'https://application.etracker.com/registration.php?formData[packageIds][]=84'
p1857
F0.0001005327676014011
sS'https://application.etracker.com/registration.php?formData[packageIds][]=85'
p1858
F0.0001005327676014011
sS'http://get.wp.com/hosting/'
p1859
F0.00010458517653135623
sS'https://application.etracker.com/registration.php?formData[packageIds][]=87'
p1860
F0.0001005327676014011
sS'http://en.support.wordpress.com/domains/map-subdomain/'
p1861
F0.00011547621815349932
sS'http://www.freenode.net'
p1862
F0.000520490978676508
sS'http://www.denizenmag.com'
p1863
F0.00010098010424129149
sS'http://en.support.wordpress.com/videos/hulu/'
p1864
F0.00011530837019317187
sS'http://twitter-api.wordpress.com/'
p1865
F0.00010090639472745637
sS'http://www.google.com/ime/transliteration'
p1866
F0.00010113013167462669
sS'http://buddypress.org/terms/'
p1867
F0.00010598115939361
sS'http://gravatar.com/cudaii'
p1868
F0.00010384056439145699
sS'http://en.support.wordpress.com/visual-editor/'
p1869
F0.00011950927848955153
sS'http://help.wufoo.com/articles/en_US/SurveyMonkeyArticleType/URL-Modifications'
p1870
F0.00015561569348535915
sS'http://jobs.wordpress.net/2013/01/05/expert-wordpress-developer-6/'
p1871
F0.00012621247615279474
sS'http://gravatar.com/warjoriedurano'
p1872
F0.00010335396086412588
sS'http://gravatar.com/iamlenise'
p1873
F0.0001030372353537105
sS'http://svn.automattic.com/wordpress-i18n/th'
p1874
F0.00010252641664363614
sS'http://en.support.wordpress.com/pages/edit-pages-screen/'
p1875
F0.0001093628998961559
sS'http://getfirebug.com/'
p1876
F0.00010176416640776766
sS'http://www.vianegativa.us/category/poems/translations/'
p1877
F0.00017218228140116485
sS'http://en.blog.wordpress.com/2013/01/07/jetpack-2-1/'
p1878
F0.00010717544297321019
sS'http://vip.wordpress.com/category/developers/'
p1879
F0.00012285054572412076
sS'https://dev.twitter.com/discussions/10633'
p1880
F0.00010304623079339976
sS'https://twitter.com/tos/previous/version_2'
p1881
F0.00010314755888967032
sS'http://en.support.wordpress.com/using-wordpress-to-create-a-website/'
p1882
F0.00011318260288091468
sS'https://twitter.com/tos/previous/version_1'
p1883
F0.00010314755888967032
sS'http://support.wordpress.com/contact/'
p1884
F0.00010962398166368413
sS'http://s.wordpress.org/about/images/logos/codeispoetry-rgb.png'
p1885
F0.0001008873366870441
sS'http://support.zemanta.com/customer/portal/articles/715550-zemanta-plugin-for-wordpress-com'
p1886
F0.00010115112291664246
sS'http://en.support.wordpress.com/settings/discussion-settings/#comment-blacklist'
p1887
F0.00010112384810798983
sS'http://fi.wordpress.org/'
p1888
F0.00010307918051178494
sS'http://www.notfall-plan.com/notfallplan-pages/wissenswertes/notfallplan-firmen/themenbereiche.php'
p1889
F0.0001286633689088312
sS'https://www.etracker.com/index.php?id=48&L=1'
p1890
F0.00016126306308844872
sS'http://www.w3schools.com/tags/ref_entities.asp'
p1891
F0.00010030841198269403
sS'http://vip.wordpress.com/hosting/'
p1892
F0.00010495916662066737
sS'http://en.support.wordpress.com/tag/flickr/'
p1893
F0.00010247402246257837
sS'http://kovshenin.com'
p1894
F0.00010098010424129149
sS'http://www.vianegativa.us/category/humor/words-on-the-street/'
p1895
F0.00017218228140116485
sS'http://www.wp.sk/'
p1896
F0.00010401499327239054
sS'http://vip.wordpress.com/category/plugins/'
p1897
F0.00012285054572412076
sS'http://www.vianegativa.us/series/postcards-from-a-conquistador/'
p1898
F0.00010030841198269403
sS'http://eu.wordpress.org'
p1899
F0.00010089155808329406
sS'http://gravatar.com/ongkoalam'
p1900
F0.00010337315986230274
sS'http://en.forums.wordpress.com/topic/wordpresscom-annual-reports'
p1901
F0.00010239718359998586
sS'http://en.support.wordpress.com/pages/new-page-screen/'
p1902
F0.0001094183015700527
sS'http://www.blurb.com/bookmaker-stories'
p1903
F0.00011716482218100732
sS'http://everything2.com/title/Formatting+poems+and+simple+HTML'
p1904
F0.00010076214967021511
sS'http://wordpress.org/about/fanart/'
p1905
F0.00010099194393681136
sS'http://en.support.wordpress.com/tag/line/'
p1906
F0.00010076214967021511
sS'http://support.wordpress.com/links/#how-to-create-links-with-the-visual-editor'
p1907
F0.00010072982770592996
sS'http://en.support.wordpress.com/tag/avatars/'
p1908
F0.00010499959377338592
sS'http://en.blog.wordpress.com/2012/05/14/photo-blogging-101-part-1/'
p1909
F0.00010645859081186576
sS'http://codex.wordpress.org/WordPress_in_Your_Language#WordPress_2'
p1910
F0.0001006537880291072
sS'http://wordpress.org/development/2008/07/theme-directory/'
p1911
F0.00010114876565282417
sS'http://gravatar.com/preciousdar'
p1912
F0.00010376048264784326
sS'http://codex.wordpress.org/L10n:Localization_Teams#Indonesian_-_Bahasa_Indonesia'
p1913
F0.00010372718613692998
sS'http://en.blog.wordpress.com/category/features/'
p1914
F0.00010815956412200275
sS'http://blog.wordthai.com/wordpress-thai/'
p1915
F0.0001067844524317919
sS'http://www.blurb.com/bookstore/featured'
p1916
F0.00011716482218100732
sS'http://en.support.wordpress.com/tag/editing/'
p1917
F0.0001065076155959361
sS'http://'
p1918
F0.00010724905427113689
sS'http://www.google.ca/intl/en/services/sitemap.html?subid=ww-en-et-as_b2blogin&amp;utm_source=ww-en-et-as_b2blogin&amp;utm_campaign=en&amp;utm_medium=et'
p1919
F0.00010576602634891684
sS'http://gravatar.com/hcfe'
p1920
F0.00010298267284889438
sS'http://directory.codepoet.com/browse/regions/north-america/'
p1921
F0.00010313193516698812
sS'http://support.wordpress.com/videos/'
p1922
F0.00010947793932142924
sS'http://zenphoto.org'
p1923
F0.00010022871867234076
sS'http://www.blurb.com/about/legal'
p1924
F0.00011716482218100732
sS'http://www.etracker.com/es/etracker-unternehmen-web-controlling-und-analyse-software/etracker-partnerpgrogram-sales-und-technologie-partner.html'
p1925
F0.0001017494555779117
sS'https://dev.twitter.com/terms/api-terms'
p1926
F0.0001038180202475581
sS'http://www.notfall-plan.com/notfallplan-pages/wissenswertes.php'
p1927
F0.00031733202230275223
sS'http://en.support.wordpress.com/links/email-links/'
p1928
F0.00010440222239893387
sS'http://www.vianegativa.us/2010/06/how-to-format-poetry-on-the-web-an-incomplete-guide/#comment-30913'
p1929
F0.00010030841198269403
sS'http://www.vianegativa.us/2013/01/emptying/'
p1930
F0.00017218228140116485
sS'http://gravatar.com/dustgaudan'
p1931
F0.00010270953400867885
sS'http://en.support.wordpress.com/posts/#writing-a-new-post'
p1932
F0.00010552800907026614
sS'http://jobs.wordpress.net/2013/01/05/need-wordpress-site-psd-to-wordpress/'
p1933
F0.0001293598620535965
sS'http://www.wp-plugins.net'
p1934
F0.0001006537880291072
sS'http://flightpath.wordpress.com/'
p1935
F0.00010098010424129149
sS'http://en.support.wordpress.com/five-ways-to-get-featured-on-freshly-pressed/'
p1936
F0.00010312377444163808
sS'http://en.support.wordpress.com/tag/languages/'
p1937
F0.00010190866950087457
sS'http://support.wordpress.com/avatars/'
p1938
F0.00010162913630367059
sS'http://wp-support.se'
p1939
F0.00010089155808329406
sS'http://blog.fastpencil.com'
p1940
F0.00010351777914477935
sS'http://gl.wordpress.org'
p1941
F0.00010122500633607836
sS'http://en.blog.wordpress.com/2012/05/18/look-before-you-leap/'
p1942
F0.00010042855158546454
sS'http://www.vianegativa.us/series/conversari-2/'
p1943
F0.00017218228140116485
sS'http://pt.wordpress.org'
p1944
F0.0001015975689911411
sS'http://ja.wordpress.org/'
p1945
F0.00011500686993486128
sS'http://jorgebernal.info/'
p1946
F0.0001015482060935966
sS'http://www.etracker.com/gb/etracker-disclaimer.html'
p1947
F0.00010239021990332323
sS'http://gravatar.com/ashleyltodd'
p1948
F0.00010341058275820858
sS'http://jobs.wordpress.net/2012/12/25/looking-for-business-partners-wordpress-website-development/'
p1949
F0.00012915067382781025
sS'http://mantas.malcius.lt/tag/wordpress/'
p1950
F0.00010201397435385091
sS'http://si.wordpress.org/'
p1951
F0.0001006537880291072
sS'http://ro.wordpress.org/'
p1952
F0.0001006537880291072
sS'http://mattwie.be/'
p1953
F0.00010098010424129149
sS'http://support.wordpress.com/microsoft-word/'
p1954
F0.00010072982770592996
sS'http://en.blog.wordpress.com/comments/feed/'
p1955
F0.0001285479294356314
sS'http://translate.e-khmer.net/'
p1956
F0.0001006537880291072
sS'http://en.support.wordpress.com/writing-helper/request-feedback/'
p1957
F0.00010391010548784876
sS'https://application.etracker.com/registration.php?formData[packageIds][]=92&languageId=2&currencyId=5'
p1958
F0.00010125951914197935
sS'http://www.notfall-plan.com/notfallplan-pages/wissenswertes/notfallplan-firmen/leistungsumfang.php'
p1959
F0.0001286633689088312
sS'http://wordpress.com/signup/?ref=products'
p1960
F0.00010448454915429175
sS'http://www.etracker.com/fr/etracker-unternehmen-web-controlling-und-analyse-software/etracker-partnerpgrogram-sales-und-technologie-partner.html'
p1961
F0.00010172587773248963
sS'http://i'
p1962
F0.0001006537880291072
sS'http://en.forums.wordpress.com/topic/cant-find-comment-notification-string'
p1963
F0.00010239718359998586
sS'http://www.vianegativa.us/author/alexis/'
p1964
F0.00017218228140116485
sS'http://jobs.wordpress.net/2012/12/25/plugin-to-generate-tournament-essentials-teams-matches-results/'
p1965
F0.00011945525014465793
sS'http://support.wordpress.com/settings/discussion-settings'
p1966
F0.00010113722950938969
sS'http://codex.wordpress.org/Category:French_Codex'
p1967
F0.00010109817561423287
sS'http://en.support.wordpress.com/tag/pages/'
p1968
F0.00011860801418462502
sS'http://en.forums.wordpress.com/topic/igbo-language'
p1969
F0.00010239718359998586
sS'http://en.blog.wordpress.com/category/howto/'
p1970
F0.00011191340329213562
sS'http://jobs.wordpress.net/2013/01/08/seeking-wp-expert-for-tech-support/'
p1971
F0.00012926002166870477
sS'http://support.wordpress.com/comment-reply-via-email/'
p1972
F0.00010162913630367059
sS'http://en.support.wordpress.com/translation-faq/'
p1973
F0.00012070299791957689
sS'http://gravatar.com/marivaldo7676'
p1974
F0.00010349357625307781
sS'http://en.support.wordpress.com/themes/'
p1975
F0.00011205374417037856
sS'http://www.vianegativa.us/category/greatest-hits/'
p1976
F0.00017218228140116485
sS'http://writingthroughthefog.com/2012/03/05/notes-on-home-on-life-on-love/'
p1977
F0.00010165985854741515
sS'http://en.support.wordpress.com/widgets/custom-menu-widget/'
p1978
F0.0001444472187866522
sS'http://www.vianegativa.us/2013/01/the-kings-coffee/'
p1979
F0.00017218228140116485
sS'http://wordpress.tv/tag/design/'
p1980
F0.00010437450055547127
sS'http://www.sitepoint.com/subcat/css'
p1981
F0.00010176416640776766
sS'http://en.support.wordpress.com/widgets/recent-posts-widget/'
p1982
F0.00014506124516944162
sS'http://en.support.files.wordpress.com/2012/07/gravatar-profile.jpg'
p1983
F0.00010113983013581321
sS'http://translate.google.com/toolkit/TOS.html'
p1984
F0.00013829736625797347
sS'http://wordpress-malagasy.googlecode.com/svn/wp/pot/mg_MG.mo'
p1985
F0.0001006537880291072
sS'http://jobs.wordpress.net/category/wordpress-blogger-positions/'
p1986
F0.0005556955766004229
sS'http://sr.wordpress.org/docs/serbianisation/'
p1987
F0.00011366748160994822
sS'http://jobs.wordpress.net/2013/01/05/wordpress-theme-conversioncustom-development-for-a-website/'
p1988
F0.000125943224823268
sS'http://wordpressfoundation.org/donate/'
p1989
F0.00014900473303538337
sS'http://directory.codepoet.com/browse/regions/europe/'
p1990
F0.00010313193516698812
sS'http://westi.wordpress.com/'
p1991
F0.00010181985562796358
sS'http://en.support.wordpress.com/widgets/flickr-widget/'
p1992
F0.00014655955966178967
sS'http://en.support.wordpress.com/settings/discussion-settings/#before-a-comment-appears'
p1993
F0.0001022121360381813
sS'http://en.support.wordpress.com/tag/toolbar/'
p1994
F0.00010306641813005573
sS'http://bbpress.org/terms/'
p1995
F0.00010756490099072578
sS'http://get2see.me'
p1996
F0.00010165218480200541
sS'http://www.vianegativa.us/2010/06/how-to-format-poetry-on-the-web-an-incomplete-guide/#comment-14310'
p1997
F0.00010030841198269403
sS'http://en.support.wordpress.com/domain-mapping/register-domain/'
p1998
F0.00010911064929819314
sS'http://en.forums.wordpress.com/topic/kirghiz-translation'
p1999
F0.00010239718359998586
sS'http://gravatar.com/rawmultimedia'
p2000
F0.00010320461427060638
s.